
========================================================================

** ELF Header Information

    File Name: .\obj\template.axf

    Machine class: ELFCLASS32 (32-bit)
    Data encoding: ELFDATA2LSB (Little endian)
    Header version: EV_CURRENT (Current version)
    Operating System ABI: none
    ABI Version: 0
    File Type: ET_EXEC (Executable) (2)
    Machine: EM_ARM (ARM)

    Image Entry point: 0x000000f1
    Flags: EF_ARM_HASENTRY + EF_ARM_ABI_FLOAT_SOFT (0x05000202)

    ARM ELF revision: 5 (ABI version 2)

    Conforms to Soft float procedure-call standard

    Built with
    Component: ARM Compiler 5.06 update 6 (build 750) Tool: armasm [4d35ec]
    Component: ARM Compiler 5.06 update 6 (build 750) Tool: armlink [4d35ed]

    Header size: 52 bytes (0x34)
    Program header entry size: 32 bytes (0x20)
    Section header entry size: 40 bytes (0x28)

    Program header entries: 1
    Section header entries: 16

    Program header offset: 311244 (0x0004bfcc)
    Section header offset: 311276 (0x0004bfec)

    Section header string table index: 15

========================================================================

** Program header #0 (PT_LOAD) [PF_X + PF_W + PF_R + PF_ARM_ENTRY]
    Size : 7176 bytes (6660 bytes in file)
    Virtual address: 0x00000000 (Alignment 8)


========================================================================

** Section #1 'ER_RO' (SHT_PROGBITS) [SHF_ALLOC + SHF_EXECINSTR]
    Size   : 6600 bytes (alignment 4)
    Address: 0x00000000

    $d.realdata
    RESET
    __Vectors
        0x00000000:    20000240    @..     DCD    536871488
        0x00000004:    000000f1    ....    DCD    241
        0x00000008:    00000117    ....    DCD    279
        0x0000000c:    000000d5    ....    DCD    213
        0x00000010:    00000000    ....    DCD    0
        0x00000014:    00000000    ....    DCD    0
        0x00000018:    00000000    ....    DCD    0
        0x0000001c:    00000000    ....    DCD    0
        0x00000020:    00000000    ....    DCD    0
        0x00000024:    00000000    ....    DCD    0
        0x00000028:    00000000    ....    DCD    0
        0x0000002c:    0000011b    ....    DCD    283
        0x00000030:    00000000    ....    DCD    0
        0x00000034:    00000000    ....    DCD    0
        0x00000038:    0000011d    ....    DCD    285
        0x0000003c:    0000011f    ....    DCD    287
        0x00000040:    00000121    !...    DCD    289
        0x00000044:    00000121    !...    DCD    289
        0x00000048:    00000121    !...    DCD    289
        0x0000004c:    00000121    !...    DCD    289
        0x00000050:    00000121    !...    DCD    289
        0x00000054:    00000121    !...    DCD    289
        0x00000058:    00000121    !...    DCD    289
        0x0000005c:    00000121    !...    DCD    289
        0x00000060:    00000121    !...    DCD    289
        0x00000064:    00000121    !...    DCD    289
        0x00000068:    00000df9    ....    DCD    3577
        0x0000006c:    00000e1d    ....    DCD    3613
        0x00000070:    00000e3d    =...    DCD    3645
        0x00000074:    00000121    !...    DCD    289
        0x00000078:    00000121    !...    DCD    289
        0x0000007c:    00000121    !...    DCD    289
        0x00000080:    00000121    !...    DCD    289
        0x00000084:    00000121    !...    DCD    289
        0x00000088:    00000121    !...    DCD    289
        0x0000008c:    00000121    !...    DCD    289
        0x00000090:    00000121    !...    DCD    289
        0x00000094:    00000121    !...    DCD    289
        0x00000098:    00000121    !...    DCD    289
        0x0000009c:    00000121    !...    DCD    289
        0x000000a0:    00000121    !...    DCD    289
        0x000000a4:    00000121    !...    DCD    289
        0x000000a8:    00000121    !...    DCD    289
        0x000000ac:    00000121    !...    DCD    289
        0x000000b0:    00000121    !...    DCD    289
        0x000000b4:    00000121    !...    DCD    289
        0x000000b8:    00000121    !...    DCD    289
        0x000000bc:    00000121    !...    DCD    289
    $t
    .ARM.Collect$$$$00000000
    .ARM.Collect$$$$00000001
    __main
    _main_stk
        0x000000c0:    4803        .H      LDR      r0,__lit__00000000 ; [0xd0] = 0x20000240
        0x000000c2:    4685        .F      MOV      sp,r0
    .ARM.Collect$$$$00000004
    _main_scatterload
        0x000000c4:    f000f8ae    ....    BL       __scatterload ; 0x224
    .ARM.Collect$$$$00000008
    .ARM.Collect$$$$0000000A
    .ARM.Collect$$$$0000000B
    __main_after_scatterload
    _main_clock
    _main_cpp_init
    _main_init
        0x000000c8:    4800        .H      LDR      r0,[pc,#0] ; [0xcc] = 0x15fd
        0x000000ca:    4700        .G      BX       r0
    $d
        0x000000cc:    000015fd    ....    DCD    5629
    .ARM.Collect$$$$00002712
    __lit__00000000
    .ARM.Collect$$$$0000000D
    .ARM.Collect$$$$0000000F
    __rt_final_cpp
    __rt_final_exit
        0x000000d0:    20000240    @..     DCD    536871488
    $t
    .emb_text
    HardFault_Handler
        0x000000d4:    2004        .       MOVS     r0,#4
        0x000000d6:    4671        qF      MOV      r1,lr
        0x000000d8:    4208        .B      TST      r0,r1
        0x000000da:    d002        ..      BEQ      0xe2 ; HardFault_Handler + 14
        0x000000dc:    f3ef8009    ....    MRS      r0,PSP
        0x000000e0:    e001        ..      B        0xe6 ; HardFault_Handler + 18
        0x000000e2:    f3ef8008    ....    MRS      r0,MSP
        0x000000e6:    4671        qF      MOV      r1,lr
        0x000000e8:    4a00        .J      LDR      r2,[pc,#0] ; [0xec] = 0x761
        0x000000ea:    4710        .G      BX       r2
    $d
        0x000000ec:    00000761    a...    DCD    1889
    $t
    .text
    Reset_Handler
        0x000000f0:    480c        .H      LDR      r0,[pc,#48] ; [0x124] = 0x40000100
        0x000000f2:    490d        .I      LDR      r1,[pc,#52] ; [0x128] = 0x59
        0x000000f4:    6001        .`      STR      r1,[r0,#0]
        0x000000f6:    490d        .I      LDR      r1,[pc,#52] ; [0x12c] = 0x16
        0x000000f8:    6001        .`      STR      r1,[r0,#0]
        0x000000fa:    490d        .I      LDR      r1,[pc,#52] ; [0x130] = 0x88
        0x000000fc:    6001        .`      STR      r1,[r0,#0]
        0x000000fe:    4a0d        .J      LDR      r2,[pc,#52] ; [0x134] = 0x40000024
        0x00000100:    490d        .I      LDR      r1,[pc,#52] ; [0x138] = 0x5aa5
        0x00000102:    6011        .`      STR      r1,[r2,#0]
        0x00000104:    4a0d        .J      LDR      r2,[pc,#52] ; [0x13c] = 0x40000280
        0x00000106:    490e        .I      LDR      r1,[pc,#56] ; [0x140] = 0x1
        0x00000108:    6011        .`      STR      r1,[r2,#0]
        0x0000010a:    2100        .!      MOVS     r1,#0
        0x0000010c:    6001        .`      STR      r1,[r0,#0]
        0x0000010e:    480d        .H      LDR      r0,[pc,#52] ; [0x144] = 0xcad
        0x00000110:    4780        .G      BLX      r0
        0x00000112:    480d        .H      LDR      r0,[pc,#52] ; [0x148] = 0xc1
        0x00000114:    4700        .G      BX       r0
    NMI_Handler
        0x00000116:    e7fe        ..      B        NMI_Handler ; 0x116
        0x00000118:    e7fe        ..      B        0x118 ; NMI_Handler + 2
    SVC_Handler
        0x0000011a:    e7fe        ..      B        SVC_Handler ; 0x11a
    PendSV_Handler
        0x0000011c:    e7fe        ..      B        PendSV_Handler ; 0x11c
    SysTick_Handler
        0x0000011e:    e7fe        ..      B        SysTick_Handler ; 0x11e
    Default_Handler
    ACMP01_IRQHandler
    ADC_IRQHandler
    BOD_IRQHandler
    BPWM0_IRQHandler
    BPWM1_IRQHandler
    CKFAIL_IRQHandler
    EINT024_IRQHandler
    EINT135_IRQHandler
    GPABGH_IRQHandler
    GPCDEF_IRQHandler
    I2C0_IRQHandler
    I2C1_IRQHandler
    ISP_IRQHandler
    PDMA_IRQHandler
    PWM0_IRQHandler
    PWM1_IRQHandler
    PWRWU_IRQHandler
    QSPI0_IRQHandler
    RTC_IRQHandler
    SPI0_IRQHandler
    TMR0_IRQHandler
    TMR1_IRQHandler
    UART13_IRQHandler
    UART46_IRQHandler
    UART57_IRQHandler
    USBD_IRQHandler
    USCI01_IRQHandler
    WDT_IRQHandler
        0x00000120:    e7fe        ..      B        Default_Handler ; 0x120
    $d
        0x00000122:    0000        ..      DCW    0
        0x00000124:    40000100    ...@    DCD    1073742080
        0x00000128:    00000059    Y...    DCD    89
        0x0000012c:    00000016    ....    DCD    22
        0x00000130:    00000088    ....    DCD    136
        0x00000134:    40000024    $..@    DCD    1073741860
        0x00000138:    00005aa5    .Z..    DCD    23205
        0x0000013c:    40000280    ...@    DCD    1073742464
        0x00000140:    00000001    ....    DCD    1
        0x00000144:    00000cad    ....    DCD    3245
        0x00000148:    000000c1    ....    DCD    193
    $t
    .text
    __aeabi_uidiv
    __aeabi_uidivmod
        0x0000014c:    b530        0.      PUSH     {r4,r5,lr}
        0x0000014e:    460b        .F      MOV      r3,r1
        0x00000150:    4601        .F      MOV      r1,r0
        0x00000152:    2000        .       MOVS     r0,#0
        0x00000154:    2220         "      MOVS     r2,#0x20
        0x00000156:    2401        .$      MOVS     r4,#1
        0x00000158:    e009        ..      B        0x16e ; __aeabi_uidiv + 34
        0x0000015a:    460d        .F      MOV      r5,r1
        0x0000015c:    40d5        .@      LSRS     r5,r5,r2
        0x0000015e:    429d        .B      CMP      r5,r3
        0x00000160:    d305        ..      BCC      0x16e ; __aeabi_uidiv + 34
        0x00000162:    461d        .F      MOV      r5,r3
        0x00000164:    4095        .@      LSLS     r5,r5,r2
        0x00000166:    1b49        I.      SUBS     r1,r1,r5
        0x00000168:    4625        %F      MOV      r5,r4
        0x0000016a:    4095        .@      LSLS     r5,r5,r2
        0x0000016c:    1940        @.      ADDS     r0,r0,r5
        0x0000016e:    4615        .F      MOV      r5,r2
        0x00000170:    1e52        R.      SUBS     r2,r2,#1
        0x00000172:    2d00        .-      CMP      r5,#0
        0x00000174:    dcf1        ..      BGT      0x15a ; __aeabi_uidiv + 14
        0x00000176:    bd30        0.      POP      {r4,r5,pc}
    .text
    __aeabi_idiv
    __aeabi_idivmod
        0x00000178:    b570        p.      PUSH     {r4-r6,lr}
        0x0000017a:    2400        .$      MOVS     r4,#0
        0x0000017c:    4625        %F      MOV      r5,r4
        0x0000017e:    2800        .(      CMP      r0,#0
        0x00000180:    da01        ..      BGE      0x186 ; __aeabi_idiv + 14
        0x00000182:    2401        .$      MOVS     r4,#1
        0x00000184:    4240        @B      RSBS     r0,r0,#0
        0x00000186:    2900        .)      CMP      r1,#0
        0x00000188:    da01        ..      BGE      0x18e ; __aeabi_idiv + 22
        0x0000018a:    2501        .%      MOVS     r5,#1
        0x0000018c:    4249        IB      RSBS     r1,r1,#0
        0x0000018e:    f7ffffdd    ....    BL       __aeabi_uidiv ; 0x14c
        0x00000192:    42ac        .B      CMP      r4,r5
        0x00000194:    d000        ..      BEQ      0x198 ; __aeabi_idiv + 32
        0x00000196:    4240        @B      RSBS     r0,r0,#0
        0x00000198:    2c00        .,      CMP      r4,#0
        0x0000019a:    d000        ..      BEQ      0x19e ; __aeabi_idiv + 38
        0x0000019c:    4249        IB      RSBS     r1,r1,#0
        0x0000019e:    bd70        p.      POP      {r4-r6,pc}
    .text
    __aeabi_memcpy
    __aeabi_memcpy4
    __aeabi_memcpy8
        0x000001a0:    4603        .F      MOV      r3,r0
        0x000001a2:    430b        .C      ORRS     r3,r3,r1
        0x000001a4:    079b        ..      LSLS     r3,r3,#30
        0x000001a6:    d003        ..      BEQ      0x1b0 ; __aeabi_memcpy + 16
        0x000001a8:    e009        ..      B        0x1be ; __aeabi_memcpy + 30
        0x000001aa:    c908        ..      LDM      r1!,{r3}
        0x000001ac:    1f12        ..      SUBS     r2,r2,#4
        0x000001ae:    c008        ..      STM      r0!,{r3}
        0x000001b0:    2a04        .*      CMP      r2,#4
        0x000001b2:    d2fa        ..      BCS      0x1aa ; __aeabi_memcpy + 10
        0x000001b4:    e003        ..      B        0x1be ; __aeabi_memcpy + 30
        0x000001b6:    780b        .x      LDRB     r3,[r1,#0]
        0x000001b8:    7003        .p      STRB     r3,[r0,#0]
        0x000001ba:    1c40        @.      ADDS     r0,r0,#1
        0x000001bc:    1c49        I.      ADDS     r1,r1,#1
        0x000001be:    1e52        R.      SUBS     r2,r2,#1
        0x000001c0:    d2f9        ..      BCS      0x1b6 ; __aeabi_memcpy + 22
        0x000001c2:    4770        pG      BX       lr
    .text
    __aeabi_uldivmod
        0x000001c4:    b5f0        ..      PUSH     {r4-r7,lr}
        0x000001c6:    b41f        ..      PUSH     {r0-r4}
        0x000001c8:    4606        .F      MOV      r6,r0
        0x000001ca:    2000        .       MOVS     r0,#0
        0x000001cc:    b082        ..      SUB      sp,sp,#8
        0x000001ce:    4605        .F      MOV      r5,r0
        0x000001d0:    2440        @$      MOVS     r4,#0x40
        0x000001d2:    9101        ..      STR      r1,[sp,#4]
        0x000001d4:    9000        ..      STR      r0,[sp,#0]
        0x000001d6:    e01b        ..      B        0x210 ; __aeabi_uldivmod + 76
        0x000001d8:    9901        ..      LDR      r1,[sp,#4]
        0x000001da:    4622        "F      MOV      r2,r4
        0x000001dc:    460f        .F      MOV      r7,r1
        0x000001de:    4630        0F      MOV      r0,r6
        0x000001e0:    f000f842    ..B.    BL       __aeabi_llsr ; 0x268
        0x000001e4:    9a04        ..      LDR      r2,[sp,#0x10]
        0x000001e6:    9b05        ..      LDR      r3,[sp,#0x14]
        0x000001e8:    1a80        ..      SUBS     r0,r0,r2
        0x000001ea:    4199        .A      SBCS     r1,r1,r3
        0x000001ec:    d310        ..      BCC      0x210 ; __aeabi_uldivmod + 76
        0x000001ee:    4610        .F      MOV      r0,r2
        0x000001f0:    4619        .F      MOV      r1,r3
        0x000001f2:    4622        "F      MOV      r2,r4
        0x000001f4:    f000f828    ..(.    BL       __aeabi_llsl ; 0x248
        0x000001f8:    1a36        6.      SUBS     r6,r6,r0
        0x000001fa:    418f        .A      SBCS     r7,r7,r1
        0x000001fc:    9701        ..      STR      r7,[sp,#4]
        0x000001fe:    4622        "F      MOV      r2,r4
        0x00000200:    2001        .       MOVS     r0,#1
        0x00000202:    2100        .!      MOVS     r1,#0
        0x00000204:    9f00        ..      LDR      r7,[sp,#0]
        0x00000206:    f000f81f    ....    BL       __aeabi_llsl ; 0x248
        0x0000020a:    1838        8.      ADDS     r0,r7,r0
        0x0000020c:    414d        MA      ADCS     r5,r5,r1
        0x0000020e:    9000        ..      STR      r0,[sp,#0]
        0x00000210:    4620         F      MOV      r0,r4
        0x00000212:    1e64        d.      SUBS     r4,r4,#1
        0x00000214:    2800        .(      CMP      r0,#0
        0x00000216:    dcdf        ..      BGT      0x1d8 ; __aeabi_uldivmod + 20
        0x00000218:    9b01        ..      LDR      r3,[sp,#4]
        0x0000021a:    9800        ..      LDR      r0,[sp,#0]
        0x0000021c:    4629        )F      MOV      r1,r5
        0x0000021e:    4632        2F      MOV      r2,r6
        0x00000220:    b007        ..      ADD      sp,sp,#0x1c
        0x00000222:    bdf0        ..      POP      {r4-r7,pc}
    .text
    __scatterload
    __scatterload_rt2
        0x00000224:    4c06        .L      LDR      r4,[pc,#24] ; [0x240] = 0x19a8
        0x00000226:    2501        .%      MOVS     r5,#1
        0x00000228:    4e06        .N      LDR      r6,[pc,#24] ; [0x244] = 0x19c8
        0x0000022a:    e005        ..      B        0x238 ; __scatterload + 20
        0x0000022c:    68e3        .h      LDR      r3,[r4,#0xc]
        0x0000022e:    cc07        ..      LDM      r4!,{r0-r2}
        0x00000230:    432b        +C      ORRS     r3,r3,r5
        0x00000232:    3c0c        .<      SUBS     r4,r4,#0xc
        0x00000234:    4798        .G      BLX      r3
        0x00000236:    3410        .4      ADDS     r4,r4,#0x10
        0x00000238:    42b4        .B      CMP      r4,r6
        0x0000023a:    d3f7        ..      BCC      0x22c ; __scatterload + 8
        0x0000023c:    f7ffff44    ..D.    BL       __main_after_scatterload ; 0xc8
    $d
        0x00000240:    000019a8    ....    DCD    6568
        0x00000244:    000019c8    ....    DCD    6600
    $t
    .text
    __aeabi_llsl
    _ll_shift_l
        0x00000248:    b510        ..      PUSH     {r4,lr}
        0x0000024a:    2a20         *      CMP      r2,#0x20
        0x0000024c:    db04        ..      BLT      0x258 ; __aeabi_llsl + 16
        0x0000024e:    4601        .F      MOV      r1,r0
        0x00000250:    3a20         :      SUBS     r2,r2,#0x20
        0x00000252:    4091        .@      LSLS     r1,r1,r2
        0x00000254:    2000        .       MOVS     r0,#0
        0x00000256:    bd10        ..      POP      {r4,pc}
        0x00000258:    4091        .@      LSLS     r1,r1,r2
        0x0000025a:    2320         #      MOVS     r3,#0x20
        0x0000025c:    1a9c        ..      SUBS     r4,r3,r2
        0x0000025e:    4603        .F      MOV      r3,r0
        0x00000260:    40e3        .@      LSRS     r3,r3,r4
        0x00000262:    4319        .C      ORRS     r1,r1,r3
        0x00000264:    4090        .@      LSLS     r0,r0,r2
        0x00000266:    bd10        ..      POP      {r4,pc}
    .text
    __aeabi_llsr
    _ll_ushift_r
        0x00000268:    b510        ..      PUSH     {r4,lr}
        0x0000026a:    2a20         *      CMP      r2,#0x20
        0x0000026c:    db04        ..      BLT      0x278 ; __aeabi_llsr + 16
        0x0000026e:    4608        .F      MOV      r0,r1
        0x00000270:    3a20         :      SUBS     r2,r2,#0x20
        0x00000272:    40d0        .@      LSRS     r0,r0,r2
        0x00000274:    2100        .!      MOVS     r1,#0
        0x00000276:    bd10        ..      POP      {r4,pc}
        0x00000278:    460b        .F      MOV      r3,r1
        0x0000027a:    40d3        .@      LSRS     r3,r3,r2
        0x0000027c:    40d0        .@      LSRS     r0,r0,r2
        0x0000027e:    2420         $      MOVS     r4,#0x20
        0x00000280:    1aa2        ..      SUBS     r2,r4,r2
        0x00000282:    4091        .@      LSLS     r1,r1,r2
        0x00000284:    4308        .C      ORRS     r0,r0,r1
        0x00000286:    4619        .F      MOV      r1,r3
        0x00000288:    bd10        ..      POP      {r4,pc}
        0x0000028a:    0000        ..      MOVS     r0,r0
    i.CLK_EnableModuleClock
    CLK_EnableModuleClock
        0x0000028c:    b50e        ..      PUSH     {r1-r3,lr}
        0x0000028e:    4909        .I      LDR      r1,[pc,#36] ; [0x2b4] = 0x192c
        0x00000290:    c90e        ..      LDM      r1,{r1-r3}
        0x00000292:    9100        ..      STR      r1,[sp,#0]
        0x00000294:    9201        ..      STR      r2,[sp,#4]
        0x00000296:    0f81        ..      LSRS     r1,r0,#30
        0x00000298:    008a        ..      LSLS     r2,r1,#2
        0x0000029a:    9302        ..      STR      r3,[sp,#8]
        0x0000029c:    4669        iF      MOV      r1,sp
        0x0000029e:    588a        .X      LDR      r2,[r1,r2]
        0x000002a0:    4905        .I      LDR      r1,[pc,#20] ; [0x2b8] = 0x40000200
        0x000002a2:    1851        Q.      ADDS     r1,r2,r1
        0x000002a4:    684a        Jh      LDR      r2,[r1,#4]
        0x000002a6:    06c3        ..      LSLS     r3,r0,#27
        0x000002a8:    0edb        ..      LSRS     r3,r3,#27
        0x000002aa:    2001        .       MOVS     r0,#1
        0x000002ac:    4098        .@      LSLS     r0,r0,r3
        0x000002ae:    4302        .C      ORRS     r2,r2,r0
        0x000002b0:    604a        J`      STR      r2,[r1,#4]
        0x000002b2:    bd0e        ..      POP      {r1-r3,pc}
    $d
        0x000002b4:    0000192c    ,...    DCD    6444
        0x000002b8:    40000200    ...@    DCD    1073742336
    $t
    i.CLK_EnableXtalRC
    CLK_EnableXtalRC
        0x000002bc:    4902        .I      LDR      r1,[pc,#8] ; [0x2c8] = 0x40000200
        0x000002be:    680a        .h      LDR      r2,[r1,#0]
        0x000002c0:    4302        .C      ORRS     r2,r2,r0
        0x000002c2:    600a        .`      STR      r2,[r1,#0]
        0x000002c4:    4770        pG      BX       lr
    $d
        0x000002c6:    0000        ..      DCW    0
        0x000002c8:    40000200    ...@    DCD    1073742336
    $t
    i.CLK_GetCPUFreq
    CLK_GetCPUFreq
        0x000002cc:    b510        ..      PUSH     {r4,lr}
        0x000002ce:    f000fca3    ....    BL       SystemCoreClockUpdate ; 0xc18
        0x000002d2:    4801        .H      LDR      r0,[pc,#4] ; [0x2d8] = 0x20000000
        0x000002d4:    6800        .h      LDR      r0,[r0,#0]
        0x000002d6:    bd10        ..      POP      {r4,pc}
    $d
        0x000002d8:    20000000    ...     DCD    536870912
    $t
    i.CLK_GetHXTFreq
    CLK_GetHXTFreq
        0x000002dc:    4802        .H      LDR      r0,[pc,#8] ; [0x2e8] = 0x40000200
        0x000002de:    6800        .h      LDR      r0,[r0,#0]
        0x000002e0:    07c0        ..      LSLS     r0,r0,#31
        0x000002e2:    d000        ..      BEQ      0x2e6 ; CLK_GetHXTFreq + 10
        0x000002e4:    4801        .H      LDR      r0,[pc,#4] ; [0x2ec] = 0x1e84800
        0x000002e6:    4770        pG      BX       lr
    $d
        0x000002e8:    40000200    ...@    DCD    1073742336
        0x000002ec:    01e84800    .H..    DCD    32000000
    $t
    i.CLK_GetLXTFreq
    CLK_GetLXTFreq
        0x000002f0:    4804        .H      LDR      r0,[pc,#16] ; [0x304] = 0x40000200
        0x000002f2:    6800        .h      LDR      r0,[r0,#0]
        0x000002f4:    0780        ..      LSLS     r0,r0,#30
        0x000002f6:    d502        ..      BPL      0x2fe ; CLK_GetLXTFreq + 14
        0x000002f8:    2001        .       MOVS     r0,#1
        0x000002fa:    03c0        ..      LSLS     r0,r0,#15
        0x000002fc:    4770        pG      BX       lr
        0x000002fe:    2000        .       MOVS     r0,#0
        0x00000300:    4770        pG      BX       lr
    $d
        0x00000302:    0000        ..      DCW    0
        0x00000304:    40000200    ...@    DCD    1073742336
    $t
    i.CLK_GetPCLK0Freq
    CLK_GetPCLK0Freq
        0x00000308:    b510        ..      PUSH     {r4,lr}
        0x0000030a:    f000fc85    ....    BL       SystemCoreClockUpdate ; 0xc18
        0x0000030e:    4804        .H      LDR      r0,[pc,#16] ; [0x320] = 0x40000200
        0x00000310:    6b40        @k      LDR      r0,[r0,#0x34]
        0x00000312:    0741        A.      LSLS     r1,r0,#29
        0x00000314:    4803        .H      LDR      r0,[pc,#12] ; [0x324] = 0x20000000
        0x00000316:    0f49        I.      LSRS     r1,r1,#29
        0x00000318:    6800        .h      LDR      r0,[r0,#0]
        0x0000031a:    40c8        .@      LSRS     r0,r0,r1
        0x0000031c:    bd10        ..      POP      {r4,pc}
    $d
        0x0000031e:    0000        ..      DCW    0
        0x00000320:    40000200    ...@    DCD    1073742336
        0x00000324:    20000000    ...     DCD    536870912
    $t
    i.CLK_GetPCLK1Freq
    CLK_GetPCLK1Freq
        0x00000328:    b510        ..      PUSH     {r4,lr}
        0x0000032a:    f000fc75    ..u.    BL       SystemCoreClockUpdate ; 0xc18
        0x0000032e:    4804        .H      LDR      r0,[pc,#16] ; [0x340] = 0x40000200
        0x00000330:    6b40        @k      LDR      r0,[r0,#0x34]
        0x00000332:    0640        @.      LSLS     r0,r0,#25
        0x00000334:    0f41        A.      LSRS     r1,r0,#29
        0x00000336:    4803        .H      LDR      r0,[pc,#12] ; [0x344] = 0x20000000
        0x00000338:    6800        .h      LDR      r0,[r0,#0]
        0x0000033a:    40c8        .@      LSRS     r0,r0,r1
        0x0000033c:    bd10        ..      POP      {r4,pc}
    $d
        0x0000033e:    0000        ..      DCW    0
        0x00000340:    40000200    ...@    DCD    1073742336
        0x00000344:    20000000    ...     DCD    536870912
    $t
    i.CLK_GetPLLClockFreq
    CLK_GetPLLClockFreq
        0x00000348:    b508        ..      PUSH     {r3,lr}
        0x0000034a:    a011        ..      ADR      r0,{pc}+0x46 ; 0x390
        0x0000034c:    6800        .h      LDR      r0,[r0,#0]
        0x0000034e:    4911        .I      LDR      r1,[pc,#68] ; [0x394] = 0x40000240
        0x00000350:    9000        ..      STR      r0,[sp,#0]
        0x00000352:    6809        .h      LDR      r1,[r1,#0]
        0x00000354:    2000        .       MOVS     r0,#0
        0x00000356:    2205        ."      MOVS     r2,#5
        0x00000358:    0412        ..      LSLS     r2,r2,#16
        0x0000035a:    4211        .B      TST      r1,r2
        0x0000035c:    d116        ..      BNE      0x38c ; CLK_GetPLLClockFreq + 68
        0x0000035e:    0308        ..      LSLS     r0,r1,#12
        0x00000360:    d501        ..      BPL      0x366 ; CLK_GetPLLClockFreq + 30
        0x00000362:    480d        .H      LDR      r0,[pc,#52] ; [0x398] = 0xb71b00
        0x00000364:    e000        ..      B        0x368 ; CLK_GetPLLClockFreq + 32
        0x00000366:    480d        .H      LDR      r0,[pc,#52] ; [0x39c] = 0x1e84800
        0x00000368:    038a        ..      LSLS     r2,r1,#14
        0x0000036a:    d40f        ..      BMI      0x38c ; CLK_GetPLLClockFreq + 68
        0x0000036c:    040a        ..      LSLS     r2,r1,#16
        0x0000036e:    0f92        ..      LSRS     r2,r2,#30
        0x00000370:    466b        kF      MOV      r3,sp
        0x00000372:    5c9b        .\      LDRB     r3,[r3,r2]
        0x00000374:    05ca        ..      LSLS     r2,r1,#23
        0x00000376:    0489        ..      LSLS     r1,r1,#18
        0x00000378:    0dd2        ..      LSRS     r2,r2,#23
        0x0000037a:    0ec9        ..      LSRS     r1,r1,#27
        0x0000037c:    1c89        ..      ADDS     r1,r1,#2
        0x0000037e:    0880        ..      LSRS     r0,r0,#2
        0x00000380:    1c92        ..      ADDS     r2,r2,#2
        0x00000382:    4359        YC      MULS     r1,r3,r1
        0x00000384:    4350        PC      MULS     r0,r2,r0
        0x00000386:    f7fffee1    ....    BL       __aeabi_uidiv ; 0x14c
        0x0000038a:    0080        ..      LSLS     r0,r0,#2
        0x0000038c:    bd08        ..      POP      {r3,pc}
    $d
        0x0000038e:    0000        ..      DCW    0
        0x00000390:    04020201    ....    DCD    67240449
        0x00000394:    40000240    @..@    DCD    1073742400
        0x00000398:    00b71b00    ....    DCD    12000000
        0x0000039c:    01e84800    .H..    DCD    32000000
    $t
    i.CLK_SetHCLK
    CLK_SetHCLK
        0x000003a0:    b5f3        ..      PUSH     {r0,r1,r4-r7,lr}
        0x000003a2:    4812        .H      LDR      r0,[pc,#72] ; [0x3ec] = 0x40000240
        0x000003a4:    b081        ..      SUB      sp,sp,#4
        0x000003a6:    6905        .i      LDR      r5,[r0,#0x10]
        0x000003a8:    460f        .F      MOV      r7,r1
        0x000003aa:    2010        .       MOVS     r0,#0x10
        0x000003ac:    4c0f        .L      LDR      r4,[pc,#60] ; [0x3ec] = 0x40000240
        0x000003ae:    4005        .@      ANDS     r5,r5,r0
        0x000003b0:    3c40        @<      SUBS     r4,r4,#0x40
        0x000003b2:    6820         h      LDR      r0,[r4,#0]
        0x000003b4:    2604        .&      MOVS     r6,#4
        0x000003b6:    4330        0C      ORRS     r0,r0,r6
        0x000003b8:    6020         `      STR      r0,[r4,#0]
        0x000003ba:    2010        .       MOVS     r0,#0x10
        0x000003bc:    f000f850    ..P.    BL       CLK_WaitClockReady ; 0x460
        0x000003c0:    6920         i      LDR      r0,[r4,#0x10]
        0x000003c2:    2107        .!      MOVS     r1,#7
        0x000003c4:    4308        .C      ORRS     r0,r0,r1
        0x000003c6:    6120         a      STR      r0,[r4,#0x10]
        0x000003c8:    6a20         j      LDR      r0,[r4,#0x20]
        0x000003ca:    0900        ..      LSRS     r0,r0,#4
        0x000003cc:    0100        ..      LSLS     r0,r0,#4
        0x000003ce:    4338        8C      ORRS     r0,r0,r7
        0x000003d0:    6220         b      STR      r0,[r4,#0x20]
        0x000003d2:    6920         i      LDR      r0,[r4,#0x10]
        0x000003d4:    4388        .C      BICS     r0,r0,r1
        0x000003d6:    9901        ..      LDR      r1,[sp,#4]
        0x000003d8:    4308        .C      ORRS     r0,r0,r1
        0x000003da:    6120         a      STR      r0,[r4,#0x10]
        0x000003dc:    f000fc1c    ....    BL       SystemCoreClockUpdate ; 0xc18
        0x000003e0:    2d00        .-      CMP      r5,#0
        0x000003e2:    d102        ..      BNE      0x3ea ; CLK_SetHCLK + 74
        0x000003e4:    6820         h      LDR      r0,[r4,#0]
        0x000003e6:    43b0        .C      BICS     r0,r0,r6
        0x000003e8:    6020         `      STR      r0,[r4,#0]
        0x000003ea:    bdfe        ..      POP      {r1-r7,pc}
    $d
        0x000003ec:    40000240    @..@    DCD    1073742400
    $t
    i.CLK_SetModuleClock
    CLK_SetModuleClock
        0x000003f0:    b5f0        ..      PUSH     {r4-r7,lr}
        0x000003f2:    4b19        .K      LDR      r3,[pc,#100] ; [0x458] = 0x190c
        0x000003f4:    b088        ..      SUB      sp,sp,#0x20
        0x000003f6:    cbf0        ..      LDM      r3!,{r4-r7}
        0x000003f8:    9400        ..      STR      r4,[sp,#0]
        0x000003fa:    ac01        ..      ADD      r4,sp,#4
        0x000003fc:    c4e0        ..      STM      r4!,{r5-r7}
        0x000003fe:    cb78        x.      LDM      r3,{r3-r6}
        0x00000400:    af04        ..      ADD      r7,sp,#0x10
        0x00000402:    c778        x.      STM      r7!,{r3-r6}
        0x00000404:    0a84        ..      LSRS     r4,r0,#10
        0x00000406:    0623        #.      LSLS     r3,r4,#24
        0x00000408:    0e1b        ..      LSRS     r3,r3,#24
        0x0000040a:    d00e        ..      BEQ      0x42a ; CLK_SetModuleClock + 58
        0x0000040c:    0303        ..      LSLS     r3,r0,#12
        0x0000040e:    0f9b        ..      LSRS     r3,r3,#30
        0x00000410:    009b        ..      LSLS     r3,r3,#2
        0x00000412:    ad04        ..      ADD      r5,sp,#0x10
        0x00000414:    58eb        .X      LDR      r3,[r5,r3]
        0x00000416:    4d11        .M      LDR      r5,[pc,#68] ; [0x45c] = 0x40000220
        0x00000418:    195b        [.      ADDS     r3,r3,r5
        0x0000041a:    b2e5        ..      UXTB     r5,r4
        0x0000041c:    0584        ..      LSLS     r4,r0,#22
        0x0000041e:    0ee4        ..      LSRS     r4,r4,#27
        0x00000420:    40a5        .@      LSLS     r5,r5,r4
        0x00000422:    681c        .h      LDR      r4,[r3,#0]
        0x00000424:    43ac        .C      BICS     r4,r4,r5
        0x00000426:    4314        .C      ORRS     r4,r4,r2
        0x00000428:    601c        .`      STR      r4,[r3,#0]
        0x0000042a:    0e42        B.      LSRS     r2,r0,#25
        0x0000042c:    0752        R.      LSLS     r2,r2,#29
        0x0000042e:    d010        ..      BEQ      0x452 ; CLK_SetModuleClock + 98
        0x00000430:    0082        ..      LSLS     r2,r0,#2
        0x00000432:    0f92        ..      LSRS     r2,r2,#30
        0x00000434:    0092        ..      LSLS     r2,r2,#2
        0x00000436:    466b        kF      MOV      r3,sp
        0x00000438:    589a        .X      LDR      r2,[r3,r2]
        0x0000043a:    4b08        .K      LDR      r3,[pc,#32] ; [0x45c] = 0x40000220
        0x0000043c:    3b10        .;      SUBS     r3,r3,#0x10
        0x0000043e:    18d2        ..      ADDS     r2,r2,r3
        0x00000440:    0103        ..      LSLS     r3,r0,#4
        0x00000442:    0f5b        [.      LSRS     r3,r3,#29
        0x00000444:    01c0        ..      LSLS     r0,r0,#7
        0x00000446:    0ec0        ..      LSRS     r0,r0,#27
        0x00000448:    4083        .@      LSLS     r3,r3,r0
        0x0000044a:    6810        .h      LDR      r0,[r2,#0]
        0x0000044c:    4398        .C      BICS     r0,r0,r3
        0x0000044e:    4308        .C      ORRS     r0,r0,r1
        0x00000450:    6010        .`      STR      r0,[r2,#0]
        0x00000452:    b008        ..      ADD      sp,sp,#0x20
        0x00000454:    bdf0        ..      POP      {r4-r7,pc}
    $d
        0x00000456:    0000        ..      DCW    0
        0x00000458:    0000190c    ....    DCD    6412
        0x0000045c:    40000220     ..@    DCD    1073742368
    $t
    i.CLK_WaitClockReady
    CLK_WaitClockReady
        0x00000460:    b510        ..      PUSH     {r4,lr}
        0x00000462:    4604        .F      MOV      r4,r0
        0x00000464:    4907        .I      LDR      r1,[pc,#28] ; [0x484] = 0x20f580
        0x00000466:    4b08        .K      LDR      r3,[pc,#32] ; [0x488] = 0x40000240
        0x00000468:    e005        ..      B        0x476 ; CLK_WaitClockReady + 22
        0x0000046a:    460a        .F      MOV      r2,r1
        0x0000046c:    1e49        I.      SUBS     r1,r1,#1
        0x0000046e:    2a00        .*      CMP      r2,#0
        0x00000470:    dc01        ..      BGT      0x476 ; CLK_WaitClockReady + 22
        0x00000472:    2000        .       MOVS     r0,#0
        0x00000474:    bd10        ..      POP      {r4,pc}
        0x00000476:    691a        .i      LDR      r2,[r3,#0x10]
        0x00000478:    4620         F      MOV      r0,r4
        0x0000047a:    4390        .C      BICS     r0,r0,r2
        0x0000047c:    d1f5        ..      BNE      0x46a ; CLK_WaitClockReady + 10
        0x0000047e:    2001        .       MOVS     r0,#1
        0x00000480:    bd10        ..      POP      {r4,pc}
    $d
        0x00000482:    0000        ..      DCW    0
        0x00000484:    0020f580    .. .    DCD    2160000
        0x00000488:    40000240    @..@    DCD    1073742400
    $t
    i.Emulate_EEPROM
    Emulate_EEPROM
        0x0000048c:    b510        ..      PUSH     {r4,lr}
        0x0000048e:    f000fa75    ..u.    BL       SYS_UnlockReg ; 0x97c
        0x00000492:    f000f887    ....    BL       FMC_Open ; 0x5a4
        0x00000496:    200f        .       MOVS     r0,#0xf
        0x00000498:    0280        ..      LSLS     r0,r0,#10
        0x0000049a:    f001f8f9    ....    BL       set_data_flash_base ; 0x1690
        0x0000049e:    2800        .(      CMP      r0,#0
        0x000004a0:    da02        ..      BGE      0x4a8 ; Emulate_EEPROM + 28
        0x000004a2:    a005        ..      ADR      r0,{pc}+0x16 ; 0x4b8
        0x000004a4:    f000fe1c    ....    BL       __0printf$8 ; 0x10e0
        0x000004a8:    2102        .!      MOVS     r1,#2
        0x000004aa:    2010        .       MOVS     r0,#0x10
        0x000004ac:    f000f96c    ..l.    BL       Init_EEPROM ; 0x788
        0x000004b0:    f000fab4    ....    BL       Search_Valid_Page ; 0xa1c
        0x000004b4:    bd10        ..      POP      {r4,pc}
    $d
        0x000004b6:    0000        ..      DCW    0
        0x000004b8:    6c696146    Fail    DCD    1818845510
        0x000004bc:    74206465    ed t    DCD    1948279909
        0x000004c0:    6573206f    o se    DCD    1702043759
        0x000004c4:    61442074    t Da    DCD    1631854708
        0x000004c8:    46206174    ta F    DCD    1176527220
        0x000004cc:    6873616c    lash    DCD    1752392044
        0x000004d0:    73616220     bas    DCD    1935761952
        0x000004d4:    64612065    e ad    DCD    1684086885
        0x000004d8:    73657264    dres    DCD    1936028260
        0x000004dc:    0a0d2173    s!..    DCD    168632691
        0x000004e0:    00000000    ....    DCD    0
    $t
    i.FMC_Close
    FMC_Close
        0x000004e4:    4802        .H      LDR      r0,[pc,#8] ; [0x4f0] = 0x4000c000
        0x000004e6:    6801        .h      LDR      r1,[r0,#0]
        0x000004e8:    0849        I.      LSRS     r1,r1,#1
        0x000004ea:    0049        I.      LSLS     r1,r1,#1
        0x000004ec:    6001        .`      STR      r1,[r0,#0]
        0x000004ee:    4770        pG      BX       lr
    $d
        0x000004f0:    4000c000    ...@    DCD    1073790976
    $t
    i.FMC_Enable
    FMC_Enable
        0x000004f4:    b510        ..      PUSH     {r4,lr}
        0x000004f6:    2159        Y!      MOVS     r1,#0x59
        0x000004f8:    4809        .H      LDR      r0,[pc,#36] ; [0x520] = 0x40000100
        0x000004fa:    2216        ."      MOVS     r2,#0x16
        0x000004fc:    2388        .#      MOVS     r3,#0x88
        0x000004fe:    6001        .`      STR      r1,[r0,#0]
        0x00000500:    6002        .`      STR      r2,[r0,#0]
        0x00000502:    6003        .`      STR      r3,[r0,#0]
        0x00000504:    6804        .h      LDR      r4,[r0,#0]
        0x00000506:    2c00        .,      CMP      r4,#0
        0x00000508:    d0f9        ..      BEQ      0x4fe ; FMC_Enable + 10
        0x0000050a:    4806        .H      LDR      r0,[pc,#24] ; [0x524] = 0x40000200
        0x0000050c:    6841        Ah      LDR      r1,[r0,#4]
        0x0000050e:    2204        ."      MOVS     r2,#4
        0x00000510:    4311        .C      ORRS     r1,r1,r2
        0x00000512:    6041        A`      STR      r1,[r0,#4]
        0x00000514:    4804        .H      LDR      r0,[pc,#16] ; [0x528] = 0x4000c000
        0x00000516:    6801        .h      LDR      r1,[r0,#0]
        0x00000518:    2201        ."      MOVS     r2,#1
        0x0000051a:    4311        .C      ORRS     r1,r1,r2
        0x0000051c:    6001        .`      STR      r1,[r0,#0]
        0x0000051e:    bd10        ..      POP      {r4,pc}
    $d
        0x00000520:    40000100    ...@    DCD    1073742080
        0x00000524:    40000200    ...@    DCD    1073742336
        0x00000528:    4000c000    ...@    DCD    1073790976
    $t
    i.FMC_Erase
    FMC_Erase
        0x0000052c:    4603        .F      MOV      r3,r0
        0x0000052e:    2101        .!      MOVS     r1,#1
        0x00000530:    b500        ..      PUSH     {lr}
        0x00000532:    2000        .       MOVS     r0,#0
        0x00000534:    0549        I.      LSLS     r1,r1,#21
        0x00000536:    428b        .B      CMP      r3,r1
        0x00000538:    d103        ..      BNE      0x542 ; FMC_Erase + 22
        0x0000053a:    f000f817    ....    BL       FMC_Erase_SPROM ; 0x56c
        0x0000053e:    2800        .(      CMP      r0,#0
        0x00000540:    d111        ..      BNE      0x566 ; FMC_Erase + 58
        0x00000542:    4909        .I      LDR      r1,[pc,#36] ; [0x568] = 0x4000c000
        0x00000544:    2222        ""      MOVS     r2,#0x22
        0x00000546:    60ca        .`      STR      r2,[r1,#0xc]
        0x00000548:    604b        K`      STR      r3,[r1,#4]
        0x0000054a:    2201        ."      MOVS     r2,#1
        0x0000054c:    610a        .a      STR      r2,[r1,#0x10]
        0x0000054e:    690a        .i      LDR      r2,[r1,#0x10]
        0x00000550:    07d2        ..      LSLS     r2,r2,#31
        0x00000552:    d1fc        ..      BNE      0x54e ; FMC_Erase + 34
        0x00000554:    680a        .h      LDR      r2,[r1,#0]
        0x00000556:    0652        R.      LSLS     r2,r2,#25
        0x00000558:    d505        ..      BPL      0x566 ; FMC_Erase + 58
        0x0000055a:    6808        .h      LDR      r0,[r1,#0]
        0x0000055c:    2240        @"      MOVS     r2,#0x40
        0x0000055e:    4310        .C      ORRS     r0,r0,r2
        0x00000560:    6008        .`      STR      r0,[r1,#0]
        0x00000562:    2000        .       MOVS     r0,#0
        0x00000564:    43c0        .C      MVNS     r0,r0
        0x00000566:    bd00        ..      POP      {pc}
    $d
        0x00000568:    4000c000    ...@    DCD    1073790976
    $t
    i.FMC_Erase_SPROM
    FMC_Erase_SPROM
        0x0000056c:    2000        .       MOVS     r0,#0
        0x0000056e:    490b        .I      LDR      r1,[pc,#44] ; [0x59c] = 0x4000c000
        0x00000570:    2222        ""      MOVS     r2,#0x22
        0x00000572:    60ca        .`      STR      r2,[r1,#0xc]
        0x00000574:    2201        ."      MOVS     r2,#1
        0x00000576:    0552        R.      LSLS     r2,r2,#21
        0x00000578:    604a        J`      STR      r2,[r1,#4]
        0x0000057a:    4a09        .J      LDR      r2,[pc,#36] ; [0x5a0] = 0x55aa03
        0x0000057c:    608a        .`      STR      r2,[r1,#8]
        0x0000057e:    2201        ."      MOVS     r2,#1
        0x00000580:    610a        .a      STR      r2,[r1,#0x10]
        0x00000582:    690a        .i      LDR      r2,[r1,#0x10]
        0x00000584:    07d2        ..      LSLS     r2,r2,#31
        0x00000586:    d1fc        ..      BNE      0x582 ; FMC_Erase_SPROM + 22
        0x00000588:    680a        .h      LDR      r2,[r1,#0]
        0x0000058a:    0652        R.      LSLS     r2,r2,#25
        0x0000058c:    d505        ..      BPL      0x59a ; FMC_Erase_SPROM + 46
        0x0000058e:    6808        .h      LDR      r0,[r1,#0]
        0x00000590:    2240        @"      MOVS     r2,#0x40
        0x00000592:    4310        .C      ORRS     r0,r0,r2
        0x00000594:    6008        .`      STR      r0,[r1,#0]
        0x00000596:    2000        .       MOVS     r0,#0
        0x00000598:    43c0        .C      MVNS     r0,r0
        0x0000059a:    4770        pG      BX       lr
    $d
        0x0000059c:    4000c000    ...@    DCD    1073790976
        0x000005a0:    0055aa03    ..U.    DCD    5614083
    $t
    i.FMC_Open
    FMC_Open
        0x000005a4:    4802        .H      LDR      r0,[pc,#8] ; [0x5b0] = 0x4000c000
        0x000005a6:    6801        .h      LDR      r1,[r0,#0]
        0x000005a8:    2201        ."      MOVS     r2,#1
        0x000005aa:    4311        .C      ORRS     r1,r1,r2
        0x000005ac:    6001        .`      STR      r1,[r0,#0]
        0x000005ae:    4770        pG      BX       lr
    $d
        0x000005b0:    4000c000    ...@    DCD    1073790976
    $t
    i.FMC_Read
    FMC_Read
        0x000005b4:    4905        .I      LDR      r1,[pc,#20] ; [0x5cc] = 0x4000c000
        0x000005b6:    2200        ."      MOVS     r2,#0
        0x000005b8:    60ca        .`      STR      r2,[r1,#0xc]
        0x000005ba:    6048        H`      STR      r0,[r1,#4]
        0x000005bc:    2001        .       MOVS     r0,#1
        0x000005be:    6108        .a      STR      r0,[r1,#0x10]
        0x000005c0:    6908        .i      LDR      r0,[r1,#0x10]
        0x000005c2:    07c0        ..      LSLS     r0,r0,#31
        0x000005c4:    d1fc        ..      BNE      0x5c0 ; FMC_Read + 12
        0x000005c6:    6888        .h      LDR      r0,[r1,#8]
        0x000005c8:    4770        pG      BX       lr
    $d
        0x000005ca:    0000        ..      DCW    0
        0x000005cc:    4000c000    ...@    DCD    1073790976
    $t
    i.FMC_ReadConfig
    FMC_ReadConfig
        0x000005d0:    b530        0.      PUSH     {r4,r5,lr}
        0x000005d2:    4604        .F      MOV      r4,r0
        0x000005d4:    2003        .       MOVS     r0,#3
        0x000005d6:    460b        .F      MOV      r3,r1
        0x000005d8:    2500        .%      MOVS     r5,#0
        0x000005da:    0500        ..      LSLS     r0,r0,#20
        0x000005dc:    f7ffffea    ....    BL       FMC_Read ; 0x5b4
        0x000005e0:    6020         `      STR      r0,[r4,#0]
        0x000005e2:    2b03        .+      CMP      r3,#3
        0x000005e4:    d901        ..      BLS      0x5ea ; FMC_ReadConfig + 26
        0x000005e6:    1e6d        m.      SUBS     r5,r5,#1
        0x000005e8:    e00c        ..      B        0x604 ; FMC_ReadConfig + 52
        0x000005ea:    2b01        .+      CMP      r3,#1
        0x000005ec:    d903        ..      BLS      0x5f6 ; FMC_ReadConfig + 38
        0x000005ee:    4806        .H      LDR      r0,[pc,#24] ; [0x608] = 0x300004
        0x000005f0:    f7ffffe0    ....    BL       FMC_Read ; 0x5b4
        0x000005f4:    6060        ``      STR      r0,[r4,#4]
        0x000005f6:    2b02        .+      CMP      r3,#2
        0x000005f8:    d904        ..      BLS      0x604 ; FMC_ReadConfig + 52
        0x000005fa:    4803        .H      LDR      r0,[pc,#12] ; [0x608] = 0x300004
        0x000005fc:    1d00        ..      ADDS     r0,r0,#4
        0x000005fe:    f7ffffd9    ....    BL       FMC_Read ; 0x5b4
        0x00000602:    60a0        .`      STR      r0,[r4,#8]
        0x00000604:    4628        (F      MOV      r0,r5
        0x00000606:    bd30        0.      POP      {r4,r5,pc}
    $d
        0x00000608:    00300004    ..0.    DCD    3145732
    $t
    i.FMC_Write
    FMC_Write
        0x0000060c:    4a05        .J      LDR      r2,[pc,#20] ; [0x624] = 0x4000c000
        0x0000060e:    2321        !#      MOVS     r3,#0x21
        0x00000610:    60d3        .`      STR      r3,[r2,#0xc]
        0x00000612:    6050        P`      STR      r0,[r2,#4]
        0x00000614:    6091        .`      STR      r1,[r2,#8]
        0x00000616:    2001        .       MOVS     r0,#1
        0x00000618:    6110        .a      STR      r0,[r2,#0x10]
        0x0000061a:    6910        .i      LDR      r0,[r2,#0x10]
        0x0000061c:    07c0        ..      LSLS     r0,r0,#31
        0x0000061e:    d1fc        ..      BNE      0x61a ; FMC_Write + 14
        0x00000620:    4770        pG      BX       lr
    $d
        0x00000622:    0000        ..      DCW    0
        0x00000624:    4000c000    ...@    DCD    1073790976
    $t
    i.FMC_WriteConfig
    FMC_WriteConfig
        0x00000628:    b5f3        ..      PUSH     {r0,r1,r4-r7,lr}
        0x0000062a:    4606        .F      MOV      r6,r0
        0x0000062c:    2000        .       MOVS     r0,#0
        0x0000062e:    b081        ..      SUB      sp,sp,#4
        0x00000630:    4604        .F      MOV      r4,r0
        0x00000632:    9000        ..      STR      r0,[sp,#0]
        0x00000634:    e010        ..      B        0x658 ; FMC_WriteConfig + 48
        0x00000636:    00a5        ..      LSLS     r5,r4,#2
        0x00000638:    2003        .       MOVS     r0,#3
        0x0000063a:    0500        ..      LSLS     r0,r0,#20
        0x0000063c:    1828        (.      ADDS     r0,r5,r0
        0x0000063e:    5971        qY      LDR      r1,[r6,r5]
        0x00000640:    4607        .F      MOV      r7,r0
        0x00000642:    f7ffffe3    ....    BL       FMC_Write ; 0x60c
        0x00000646:    4638        8F      MOV      r0,r7
        0x00000648:    f7ffffb4    ....    BL       FMC_Read ; 0x5b4
        0x0000064c:    5971        qY      LDR      r1,[r6,r5]
        0x0000064e:    4288        .B      CMP      r0,r1
        0x00000650:    d001        ..      BEQ      0x656 ; FMC_WriteConfig + 46
        0x00000652:    2001        .       MOVS     r0,#1
        0x00000654:    9000        ..      STR      r0,[sp,#0]
        0x00000656:    1c64        d.      ADDS     r4,r4,#1
        0x00000658:    9802        ..      LDR      r0,[sp,#8]
        0x0000065a:    4284        .B      CMP      r4,r0
        0x0000065c:    d3eb        ..      BCC      0x636 ; FMC_WriteConfig + 14
        0x0000065e:    9800        ..      LDR      r0,[sp,#0]
        0x00000660:    bdfe        ..      POP      {r1-r7,pc}
        0x00000662:    0000        ..      MOVS     r0,r0
    i.GPIO_Init
    GPIO_Init
        0x00000664:    b510        ..      PUSH     {r4,lr}
        0x00000666:    2201        ."      MOVS     r2,#1
        0x00000668:    0391        ..      LSLS     r1,r2,#14
        0x0000066a:    4802        .H      LDR      r0,[pc,#8] ; [0x674] = 0x40004040
        0x0000066c:    f000f804    ....    BL       GPIO_SetMode ; 0x678
        0x00000670:    bd10        ..      POP      {r4,pc}
    $d
        0x00000672:    0000        ..      DCW    0
        0x00000674:    40004040    @@.@    DCD    1073758272
    $t
    i.GPIO_SetMode
    GPIO_SetMode
        0x00000678:    b5f0        ..      PUSH     {r4-r7,lr}
        0x0000067a:    2300        .#      MOVS     r3,#0
        0x0000067c:    2701        .'      MOVS     r7,#1
        0x0000067e:    463c        <F      MOV      r4,r7
        0x00000680:    409c        .@      LSLS     r4,r4,r3
        0x00000682:    420c        .B      TST      r4,r1
        0x00000684:    d008        ..      BEQ      0x698 ; GPIO_SetMode + 32
        0x00000686:    6805        .h      LDR      r5,[r0,#0]
        0x00000688:    005c        \.      LSLS     r4,r3,#1
        0x0000068a:    2603        .&      MOVS     r6,#3
        0x0000068c:    40a6        .@      LSLS     r6,r6,r4
        0x0000068e:    43b5        .C      BICS     r5,r5,r6
        0x00000690:    4616        .F      MOV      r6,r2
        0x00000692:    40a6        .@      LSLS     r6,r6,r4
        0x00000694:    4335        5C      ORRS     r5,r5,r6
        0x00000696:    6005        .`      STR      r5,[r0,#0]
        0x00000698:    1c5b        [.      ADDS     r3,r3,#1
        0x0000069a:    2b10        .+      CMP      r3,#0x10
        0x0000069c:    d3ef        ..      BCC      0x67e ; GPIO_SetMode + 6
        0x0000069e:    bdf0        ..      POP      {r4-r7,pc}
    i.GetDateTimeFromFlash
    GetDateTimeFromFlash
        0x000006a0:    b51c        ..      PUSH     {r2-r4,lr}
        0x000006a2:    2000        .       MOVS     r0,#0
        0x000006a4:    4669        iF      MOV      r1,sp
        0x000006a6:    7008        .p      STRB     r0,[r1,#0]
        0x000006a8:    7108        .q      STRB     r0,[r1,#4]
        0x000006aa:    2001        .       MOVS     r0,#1
        0x000006ac:    f000f90a    ....    BL       Read_Data ; 0x8c4
        0x000006b0:    a901        ..      ADD      r1,sp,#4
        0x000006b2:    2002        .       MOVS     r0,#2
        0x000006b4:    f000f906    ....    BL       Read_Data ; 0x8c4
        0x000006b8:    4669        iF      MOV      r1,sp
        0x000006ba:    7908        .y      LDRB     r0,[r1,#4]
        0x000006bc:    7809        .x      LDRB     r1,[r1,#0]
        0x000006be:    0202        ..      LSLS     r2,r0,#8
        0x000006c0:    430a        .C      ORRS     r2,r2,r1
        0x000006c2:    4c25        %L      LDR      r4,[pc,#148] ; [0x758] = 0x20000010
        0x000006c4:    28ff        .(      CMP      r0,#0xff
        0x000006c6:    60e2        .`      STR      r2,[r4,#0xc]
        0x000006c8:    d001        ..      BEQ      0x6ce ; GetDateTimeFromFlash + 46
        0x000006ca:    29ff        .)      CMP      r1,#0xff
        0x000006cc:    d101        ..      BNE      0x6d2 ; GetDateTimeFromFlash + 50
        0x000006ce:    4823        #H      LDR      r0,[pc,#140] ; [0x75c] = 0x7e4
        0x000006d0:    60e0        .`      STR      r0,[r4,#0xc]
        0x000006d2:    4669        iF      MOV      r1,sp
        0x000006d4:    2003        .       MOVS     r0,#3
        0x000006d6:    f000f8f5    ....    BL       Read_Data ; 0x8c4
        0x000006da:    4668        hF      MOV      r0,sp
        0x000006dc:    7800        .x      LDRB     r0,[r0,#0]
        0x000006de:    7060        `p      STRB     r0,[r4,#1]
        0x000006e0:    28ff        .(      CMP      r0,#0xff
        0x000006e2:    d101        ..      BNE      0x6e8 ; GetDateTimeFromFlash + 72
        0x000006e4:    2004        .       MOVS     r0,#4
        0x000006e6:    7060        `p      STRB     r0,[r4,#1]
        0x000006e8:    4669        iF      MOV      r1,sp
        0x000006ea:    2004        .       MOVS     r0,#4
        0x000006ec:    f000f8ea    ....    BL       Read_Data ; 0x8c4
        0x000006f0:    4668        hF      MOV      r0,sp
        0x000006f2:    7800        .x      LDRB     r0,[r0,#0]
        0x000006f4:    70a0        .p      STRB     r0,[r4,#2]
        0x000006f6:    28ff        .(      CMP      r0,#0xff
        0x000006f8:    d101        ..      BNE      0x6fe ; GetDateTimeFromFlash + 94
        0x000006fa:    201b        .       MOVS     r0,#0x1b
        0x000006fc:    70a0        .p      STRB     r0,[r4,#2]
        0x000006fe:    4669        iF      MOV      r1,sp
        0x00000700:    2005        .       MOVS     r0,#5
        0x00000702:    f000f8df    ....    BL       Read_Data ; 0x8c4
        0x00000706:    4668        hF      MOV      r0,sp
        0x00000708:    7800        .x      LDRB     r0,[r0,#0]
        0x0000070a:    70e0        .p      STRB     r0,[r4,#3]
        0x0000070c:    28ff        .(      CMP      r0,#0xff
        0x0000070e:    d101        ..      BNE      0x714 ; GetDateTimeFromFlash + 116
        0x00000710:    2001        .       MOVS     r0,#1
        0x00000712:    70e0        .p      STRB     r0,[r4,#3]
        0x00000714:    4669        iF      MOV      r1,sp
        0x00000716:    2006        .       MOVS     r0,#6
        0x00000718:    f000f8d4    ....    BL       Read_Data ; 0x8c4
        0x0000071c:    4668        hF      MOV      r0,sp
        0x0000071e:    7800        .x      LDRB     r0,[r0,#0]
        0x00000720:    7120         q      STRB     r0,[r4,#4]
        0x00000722:    28ff        .(      CMP      r0,#0xff
        0x00000724:    d101        ..      BNE      0x72a ; GetDateTimeFromFlash + 138
        0x00000726:    200d        .       MOVS     r0,#0xd
        0x00000728:    7120         q      STRB     r0,[r4,#4]
        0x0000072a:    4669        iF      MOV      r1,sp
        0x0000072c:    2007        .       MOVS     r0,#7
        0x0000072e:    f000f8c9    ....    BL       Read_Data ; 0x8c4
        0x00000732:    4668        hF      MOV      r0,sp
        0x00000734:    7800        .x      LDRB     r0,[r0,#0]
        0x00000736:    7160        `q      STRB     r0,[r4,#5]
        0x00000738:    28ff        .(      CMP      r0,#0xff
        0x0000073a:    d101        ..      BNE      0x740 ; GetDateTimeFromFlash + 160
        0x0000073c:    203b        ;       MOVS     r0,#0x3b
        0x0000073e:    7160        `q      STRB     r0,[r4,#5]
        0x00000740:    4669        iF      MOV      r1,sp
        0x00000742:    2008        .       MOVS     r0,#8
        0x00000744:    f000f8be    ....    BL       Read_Data ; 0x8c4
        0x00000748:    4668        hF      MOV      r0,sp
        0x0000074a:    7800        .x      LDRB     r0,[r0,#0]
        0x0000074c:    71a0        .q      STRB     r0,[r4,#6]
        0x0000074e:    28ff        .(      CMP      r0,#0xff
        0x00000750:    d101        ..      BNE      0x756 ; GetDateTimeFromFlash + 182
        0x00000752:    201e        .       MOVS     r0,#0x1e
        0x00000754:    71a0        .q      STRB     r0,[r4,#6]
        0x00000756:    bd1c        ..      POP      {r2-r4,pc}
    $d
        0x00000758:    20000010    ...     DCD    536870928
        0x0000075c:    000007e4    ....    DCD    2020
    $t
    i.Hard_Fault_Handler
    Hard_Fault_Handler
    __tagsym$$used
        0x00000760:    4604        .F      MOV      r4,r0
        0x00000762:    a003        ..      ADR      r0,{pc}+0xe ; 0x770
        0x00000764:    f000fcbc    ....    BL       __0printf$8 ; 0x10e0
        0x00000768:    4620         F      MOV      r0,r4
        0x0000076a:    f001f80b    ....    BL       stackDump ; 0x1784
        0x0000076e:    e7fe        ..      B        0x76e ; Hard_Fault_Handler + 14
    $d
        0x00000770:    48206e49    In H    DCD    1210084937
        0x00000774:    20647261    ard     DCD    543453793
        0x00000778:    6c756146    Faul    DCD    1819631942
        0x0000077c:    61482074    t Ha    DCD    1632116852
        0x00000780:    656c646e    ndle    DCD    1701602414
        0x00000784:    00000a72    r...    DCD    2674
    $t
    i.Init_EEPROM
    Init_EEPROM
        0x00000788:    b510        ..      PUSH     {r4,lr}
        0x0000078a:    4c0c        .L      LDR      r4,[pc,#48] ; [0x7bc] = 0x20000020
        0x0000078c:    2880        .(      CMP      r0,#0x80
        0x0000078e:    6061        a`      STR      r1,[r4,#4]
        0x00000790:    60a0        .`      STR      r0,[r4,#8]
        0x00000792:    d901        ..      BLS      0x798 ; Init_EEPROM + 16
        0x00000794:    2001        .       MOVS     r0,#1
        0x00000796:    bd10        ..      POP      {r4,pc}
        0x00000798:    2908        .)      CMP      r1,#8
        0x0000079a:    d901        ..      BLS      0x7a0 ; Init_EEPROM + 24
        0x0000079c:    2002        .       MOVS     r0,#2
        0x0000079e:    bd10        ..      POP      {r4,pc}
        0x000007a0:    f000ff40    ..@.    BL       malloc ; 0x1624
        0x000007a4:    2100        .!      MOVS     r1,#0
        0x000007a6:    22ff        ."      MOVS     r2,#0xff
        0x000007a8:    6120         a      STR      r0,[r4,#0x10]
        0x000007aa:    e001        ..      B        0x7b0 ; Init_EEPROM + 40
        0x000007ac:    5442        BT      STRB     r2,[r0,r1]
        0x000007ae:    1c49        I.      ADDS     r1,r1,#1
        0x000007b0:    68a3        .h      LDR      r3,[r4,#8]
        0x000007b2:    4299        .B      CMP      r1,r3
        0x000007b4:    d3fa        ..      BCC      0x7ac ; Init_EEPROM + 36
        0x000007b6:    2000        .       MOVS     r0,#0
        0x000007b8:    bd10        ..      POP      {r4,pc}
    $d
        0x000007ba:    0000        ..      DCW    0
        0x000007bc:    20000020     ..     DCD    536870944
    $t
    i.IsDebugFifoEmpty
    IsDebugFifoEmpty
        0x000007c0:    4802        .H      LDR      r0,[pc,#8] ; [0x7cc] = 0x40070000
        0x000007c2:    6980        .i      LDR      r0,[r0,#0x18]
        0x000007c4:    00c0        ..      LSLS     r0,r0,#3
        0x000007c6:    0fc0        ..      LSRS     r0,r0,#31
        0x000007c8:    4770        pG      BX       lr
    $d
        0x000007ca:    0000        ..      DCW    0
        0x000007cc:    40070000    ...@    DCD    1074200576
    $t
    i.Manage_Next_Page
    Manage_Next_Page
        0x000007d0:    b5fe        ..      PUSH     {r1-r7,lr}
        0x000007d2:    4836        6H      LDR      r0,[pc,#216] ; [0x8ac] = 0x4000c000
        0x000007d4:    2400        .$      MOVS     r4,#0
        0x000007d6:    6941        Ai      LDR      r1,[r0,#0x14]
        0x000007d8:    4625        %F      MOV      r5,r4
        0x000007da:    4626        &F      MOV      r6,r4
        0x000007dc:    4834        4H      LDR      r0,[pc,#208] ; [0x8b0] = 0x20000020
        0x000007de:    6800        .h      LDR      r0,[r0,#0]
        0x000007e0:    0240        @.      LSLS     r0,r0,#9
        0x000007e2:    1808        ..      ADDS     r0,r1,r0
        0x000007e4:    f7fffee6    ....    BL       FMC_Read ; 0x5b4
        0x000007e8:    4607        .F      MOV      r7,r0
        0x000007ea:    4831        1H      LDR      r0,[pc,#196] ; [0x8b0] = 0x20000020
        0x000007ec:    4a30        0J      LDR      r2,[pc,#192] ; [0x8b0] = 0x20000020
        0x000007ee:    6800        .h      LDR      r0,[r0,#0]
        0x000007f0:    6852        Rh      LDR      r2,[r2,#4]
        0x000007f2:    1c41        A.      ADDS     r1,r0,#1
        0x000007f4:    4291        .B      CMP      r1,r2
        0x000007f6:    d103        ..      BNE      0x800 ; Manage_Next_Page + 48
        0x000007f8:    2000        .       MOVS     r0,#0
        0x000007fa:    1c7f        ..      ADDS     r7,r7,#1
        0x000007fc:    9000        ..      STR      r0,[sp,#0]
        0x000007fe:    e001        ..      B        0x804 ; Manage_Next_Page + 52
        0x00000800:    1c40        @.      ADDS     r0,r0,#1
        0x00000802:    9000        ..      STR      r0,[sp,#0]
        0x00000804:    f7fffe76    ..v.    BL       FMC_Enable ; 0x4f4
        0x00000808:    4929        )I      LDR      r1,[pc,#164] ; [0x8b0] = 0x20000020
        0x0000080a:    6908        .i      LDR      r0,[r1,#0x10]
        0x0000080c:    5d02        .]      LDRB     r2,[r0,r4]
        0x0000080e:    2aff        .*      CMP      r2,#0xff
        0x00000810:    d010        ..      BEQ      0x834 ; Manage_Next_Page + 100
        0x00000812:    5d00        .]      LDRB     r0,[r0,r4]
        0x00000814:    0422        ".      LSLS     r2,r4,#16
        0x00000816:    0600        ..      LSLS     r0,r0,#24
        0x00000818:    4302        .C      ORRS     r2,r2,r0
        0x0000081a:    4824        $H      LDR      r0,[pc,#144] ; [0x8ac] = 0x4000c000
        0x0000081c:    b2bb        ..      UXTH     r3,r7
        0x0000081e:    6941        Ai      LDR      r1,[r0,#0x14]
        0x00000820:    431a        .C      ORRS     r2,r2,r3
        0x00000822:    9800        ..      LDR      r0,[sp,#0]
        0x00000824:    0240        @.      LSLS     r0,r0,#9
        0x00000826:    9001        ..      STR      r0,[sp,#4]
        0x00000828:    1808        ..      ADDS     r0,r1,r0
        0x0000082a:    4611        .F      MOV      r1,r2
        0x0000082c:    f7fffeee    ....    BL       FMC_Write ; 0x60c
        0x00000830:    2704        .'      MOVS     r7,#4
        0x00000832:    e015        ..      B        0x860 ; Manage_Next_Page + 144
        0x00000834:    1c64        d.      ADDS     r4,r4,#1
        0x00000836:    e7e9        ..      B        0x80c ; Manage_Next_Page + 60
        0x00000838:    6900        .i      LDR      r0,[r0,#0x10]
        0x0000083a:    5d00        .]      LDRB     r0,[r0,r4]
        0x0000083c:    28ff        .(      CMP      r0,#0xff
        0x0000083e:    d00f        ..      BEQ      0x860 ; Manage_Next_Page + 144
        0x00000840:    2e00        ..      CMP      r6,#0
        0x00000842:    d02d        -.      BEQ      0x8a0 ; Manage_Next_Page + 208
        0x00000844:    0421        !.      LSLS     r1,r4,#16
        0x00000846:    0600        ..      LSLS     r0,r0,#24
        0x00000848:    4301        .C      ORRS     r1,r1,r0
        0x0000084a:    4818        .H      LDR      r0,[pc,#96] ; [0x8ac] = 0x4000c000
        0x0000084c:    4329        )C      ORRS     r1,r1,r5
        0x0000084e:    6942        Bi      LDR      r2,[r0,#0x14]
        0x00000850:    9801        ..      LDR      r0,[sp,#4]
        0x00000852:    19c0        ..      ADDS     r0,r0,r7
        0x00000854:    1810        ..      ADDS     r0,r2,r0
        0x00000856:    f7fffed9    ....    BL       FMC_Write ; 0x60c
        0x0000085a:    2500        .%      MOVS     r5,#0
        0x0000085c:    462e        .F      MOV      r6,r5
        0x0000085e:    1d3f        ?.      ADDS     r7,r7,#4
        0x00000860:    4813        .H      LDR      r0,[pc,#76] ; [0x8b0] = 0x20000020
        0x00000862:    1c64        d.      ADDS     r4,r4,#1
        0x00000864:    6881        .h      LDR      r1,[r0,#8]
        0x00000866:    428c        .B      CMP      r4,r1
        0x00000868:    d3e6        ..      BCC      0x838 ; Manage_Next_Page + 104
        0x0000086a:    4604        .F      MOV      r4,r0
        0x0000086c:    60e7        .`      STR      r7,[r4,#0xc]
        0x0000086e:    2e00        ..      CMP      r6,#0
        0x00000870:    d00c        ..      BEQ      0x88c ; Manage_Next_Page + 188
        0x00000872:    4810        .H      LDR      r0,[pc,#64] ; [0x8b4] = 0xffff0000
        0x00000874:    4629        )F      MOV      r1,r5
        0x00000876:    4301        .C      ORRS     r1,r1,r0
        0x00000878:    480c        .H      LDR      r0,[pc,#48] ; [0x8ac] = 0x4000c000
        0x0000087a:    6942        Bi      LDR      r2,[r0,#0x14]
        0x0000087c:    9801        ..      LDR      r0,[sp,#4]
        0x0000087e:    19c0        ..      ADDS     r0,r0,r7
        0x00000880:    1810        ..      ADDS     r0,r2,r0
        0x00000882:    f7fffec3    ....    BL       FMC_Write ; 0x60c
        0x00000886:    68e0        .h      LDR      r0,[r4,#0xc]
        0x00000888:    1c80        ..      ADDS     r0,r0,#2
        0x0000088a:    60e0        .`      STR      r0,[r4,#0xc]
        0x0000088c:    4807        .H      LDR      r0,[pc,#28] ; [0x8ac] = 0x4000c000
        0x0000088e:    6940        @i      LDR      r0,[r0,#0x14]
        0x00000890:    6821        !h      LDR      r1,[r4,#0]
        0x00000892:    0249        I.      LSLS     r1,r1,#9
        0x00000894:    1840        @.      ADDS     r0,r0,r1
        0x00000896:    f7fffe49    ..I.    BL       FMC_Erase ; 0x52c
        0x0000089a:    9800        ..      LDR      r0,[sp,#0]
        0x0000089c:    6020         `      STR      r0,[r4,#0]
        0x0000089e:    bdfe        ..      POP      {r1-r7,pc}
        0x000008a0:    0200        ..      LSLS     r0,r0,#8
        0x000008a2:    4320         C      ORRS     r0,r0,r4
        0x000008a4:    4305        .C      ORRS     r5,r5,r0
        0x000008a6:    2601        .&      MOVS     r6,#1
        0x000008a8:    e7da        ..      B        0x860 ; Manage_Next_Page + 144
    $d
        0x000008aa:    0000        ..      DCW    0
        0x000008ac:    4000c000    ...@    DCD    1073790976
        0x000008b0:    20000020     ..     DCD    536870944
        0x000008b4:    ffff0000    ....    DCD    4294901760
    $t
    i.RTC_Process
    RTC_Process
        0x000008b8:    b510        ..      PUSH     {r4,lr}
        0x000008ba:    f000f91f    ....    BL       SoftwareRTC ; 0xafc
        0x000008be:    f000f963    ..c.    BL       SoftwareYMD ; 0xb88
        0x000008c2:    bd10        ..      POP      {r4,pc}
    i.Read_Data
    Read_Data
        0x000008c4:    2880        .(      CMP      r0,#0x80
        0x000008c6:    d301        ..      BCC      0x8cc ; Read_Data + 8
        0x000008c8:    2003        .       MOVS     r0,#3
        0x000008ca:    4770        pG      BX       lr
        0x000008cc:    4a02        .J      LDR      r2,[pc,#8] ; [0x8d8] = 0x20000020
        0x000008ce:    6912        .i      LDR      r2,[r2,#0x10]
        0x000008d0:    5c10        .\      LDRB     r0,[r2,r0]
        0x000008d2:    7008        .p      STRB     r0,[r1,#0]
        0x000008d4:    2000        .       MOVS     r0,#0
        0x000008d6:    4770        pG      BX       lr
    $d
        0x000008d8:    20000020     ..     DCD    536870944
    $t
    i.SYS_Init
    SYS_Init
        0x000008dc:    b510        ..      PUSH     {r4,lr}
        0x000008de:    f000f84d    ..M.    BL       SYS_UnlockReg ; 0x97c
        0x000008e2:    2004        .       MOVS     r0,#4
        0x000008e4:    f7fffcea    ....    BL       CLK_EnableXtalRC ; 0x2bc
        0x000008e8:    2010        .       MOVS     r0,#0x10
        0x000008ea:    f7fffdb9    ....    BL       CLK_WaitClockReady ; 0x460
        0x000008ee:    2100        .!      MOVS     r1,#0
        0x000008f0:    2007        .       MOVS     r0,#7
        0x000008f2:    f7fffd55    ..U.    BL       CLK_SetHCLK ; 0x3a0
        0x000008f6:    4c16        .L      LDR      r4,[pc,#88] ; [0x950] = 0x5f803d10
        0x000008f8:    4620         F      MOV      r0,r4
        0x000008fa:    f7fffcc7    ....    BL       CLK_EnableModuleClock ; 0x28c
        0x000008fe:    2101        .!      MOVS     r1,#1
        0x00000900:    2200        ."      MOVS     r2,#0
        0x00000902:    0689        ..      LSLS     r1,r1,#26
        0x00000904:    4620         F      MOV      r0,r4
        0x00000906:    f7fffd73    ..s.    BL       CLK_SetModuleClock ; 0x3f0
        0x0000090a:    4c12        .L      LDR      r4,[pc,#72] ; [0x954] = 0x5f000004
        0x0000090c:    4620         F      MOV      r0,r4
        0x0000090e:    f7fffcbd    ....    BL       CLK_EnableModuleClock ; 0x28c
        0x00000912:    2200        ."      MOVS     r2,#0
        0x00000914:    03e1        ..      LSLS     r1,r4,#15
        0x00000916:    4620         F      MOV      r0,r4
        0x00000918:    f7fffd6a    ..j.    BL       CLK_SetModuleClock ; 0x3f0
        0x0000091c:    4c0e        .L      LDR      r4,[pc,#56] ; [0x958] = 0x5f400005
        0x0000091e:    4620         F      MOV      r0,r4
        0x00000920:    f7fffcb4    ....    BL       CLK_EnableModuleClock ; 0x28c
        0x00000924:    2101        .!      MOVS     r1,#1
        0x00000926:    2200        ."      MOVS     r2,#0
        0x00000928:    0549        I.      LSLS     r1,r1,#21
        0x0000092a:    4620         F      MOV      r0,r4
        0x0000092c:    f7fffd60    ..`.    BL       CLK_SetModuleClock ; 0x3f0
        0x00000930:    f000f972    ..r.    BL       SystemCoreClockUpdate ; 0xc18
        0x00000934:    07a0        ..      LSLS     r0,r4,#30
        0x00000936:    6bc1        .k      LDR      r1,[r0,#0x3c]
        0x00000938:    22ff        ."      MOVS     r2,#0xff
        0x0000093a:    0412        ..      LSLS     r2,r2,#16
        0x0000093c:    4391        .C      BICS     r1,r1,r2
        0x0000093e:    2233        3"      MOVS     r2,#0x33
        0x00000940:    0452        R.      LSLS     r2,r2,#17
        0x00000942:    1889        ..      ADDS     r1,r1,r2
        0x00000944:    63c1        .c      STR      r1,[r0,#0x3c]
        0x00000946:    4905        .I      LDR      r1,[pc,#20] ; [0x95c] = 0x40000100
        0x00000948:    2000        .       MOVS     r0,#0
        0x0000094a:    6008        .`      STR      r0,[r1,#0]
        0x0000094c:    bd10        ..      POP      {r4,pc}
    $d
        0x0000094e:    0000        ..      DCW    0
        0x00000950:    5f803d10    .=._    DCD    1602239760
        0x00000954:    5f000004    ..._    DCD    1593835524
        0x00000958:    5f400005    ..@_    DCD    1598029829
        0x0000095c:    40000100    ...@    DCD    1073742080
    $t
    i.SYS_ResetModule
    SYS_ResetModule
        0x00000960:    2101        .!      MOVS     r1,#1
        0x00000962:    0e02        ..      LSRS     r2,r0,#24
        0x00000964:    0789        ..      LSLS     r1,r1,#30
        0x00000966:    1851        Q.      ADDS     r1,r2,r1
        0x00000968:    688b        .h      LDR      r3,[r1,#8]
        0x0000096a:    2201        ."      MOVS     r2,#1
        0x0000096c:    4082        .@      LSLS     r2,r2,r0
        0x0000096e:    4313        .C      ORRS     r3,r3,r2
        0x00000970:    608b        .`      STR      r3,[r1,#8]
        0x00000972:    6888        .h      LDR      r0,[r1,#8]
        0x00000974:    4390        .C      BICS     r0,r0,r2
        0x00000976:    6088        .`      STR      r0,[r1,#8]
        0x00000978:    4770        pG      BX       lr
        0x0000097a:    0000        ..      MOVS     r0,r0
    i.SYS_UnlockReg
    SYS_UnlockReg
        0x0000097c:    b510        ..      PUSH     {r4,lr}
        0x0000097e:    2159        Y!      MOVS     r1,#0x59
        0x00000980:    4804        .H      LDR      r0,[pc,#16] ; [0x994] = 0x40000100
        0x00000982:    2216        ."      MOVS     r2,#0x16
        0x00000984:    2388        .#      MOVS     r3,#0x88
        0x00000986:    6001        .`      STR      r1,[r0,#0]
        0x00000988:    6002        .`      STR      r2,[r0,#0]
        0x0000098a:    6003        .`      STR      r3,[r0,#0]
        0x0000098c:    6804        .h      LDR      r4,[r0,#0]
        0x0000098e:    2c00        .,      CMP      r4,#0
        0x00000990:    d0f9        ..      BEQ      0x986 ; SYS_UnlockReg + 10
        0x00000992:    bd10        ..      POP      {r4,pc}
    $d
        0x00000994:    40000100    ...@    DCD    1073742080
    $t
    i.SaveDateTimeToFlash
    SaveDateTimeToFlash
        0x00000998:    b510        ..      PUSH     {r4,lr}
        0x0000099a:    4c19        .L      LDR      r4,[pc,#100] ; [0xa00] = 0x20000010
        0x0000099c:    7820         x      LDRB     r0,[r4,#0]
        0x0000099e:    0641        A.      LSLS     r1,r0,#25
        0x000009a0:    d52d        -.      BPL      0x9fe ; SaveDateTimeToFlash + 102
        0x000009a2:    21bf        .!      MOVS     r1,#0xbf
        0x000009a4:    4008        .@      ANDS     r0,r0,r1
        0x000009a6:    7020         p      STRB     r0,[r4,#0]
        0x000009a8:    7b21        !{      LDRB     r1,[r4,#0xc]
        0x000009aa:    2001        .       MOVS     r0,#1
        0x000009ac:    f000fb52    ..R.    BL       Write_Data ; 0x1054
        0x000009b0:    89a0        ..      LDRH     r0,[r4,#0xc]
        0x000009b2:    0400        ..      LSLS     r0,r0,#16
        0x000009b4:    0e01        ..      LSRS     r1,r0,#24
        0x000009b6:    2002        .       MOVS     r0,#2
        0x000009b8:    f000fb4c    ..L.    BL       Write_Data ; 0x1054
        0x000009bc:    7861        ax      LDRB     r1,[r4,#1]
        0x000009be:    2003        .       MOVS     r0,#3
        0x000009c0:    f000fb48    ..H.    BL       Write_Data ; 0x1054
        0x000009c4:    78a1        .x      LDRB     r1,[r4,#2]
        0x000009c6:    2004        .       MOVS     r0,#4
        0x000009c8:    f000fb44    ..D.    BL       Write_Data ; 0x1054
        0x000009cc:    78e1        .x      LDRB     r1,[r4,#3]
        0x000009ce:    2005        .       MOVS     r0,#5
        0x000009d0:    f000fb40    ..@.    BL       Write_Data ; 0x1054
        0x000009d4:    7921        !y      LDRB     r1,[r4,#4]
        0x000009d6:    2006        .       MOVS     r0,#6
        0x000009d8:    f000fb3c    ..<.    BL       Write_Data ; 0x1054
        0x000009dc:    7961        ay      LDRB     r1,[r4,#5]
        0x000009de:    2007        .       MOVS     r0,#7
        0x000009e0:    f000fb38    ..8.    BL       Write_Data ; 0x1054
        0x000009e4:    79a1        .y      LDRB     r1,[r4,#6]
        0x000009e6:    2008        .       MOVS     r0,#8
        0x000009e8:    f000fb34    ..4.    BL       Write_Data ; 0x1054
        0x000009ec:    f7fffd7a    ..z.    BL       FMC_Close ; 0x4e4
        0x000009f0:    4904        .I      LDR      r1,[pc,#16] ; [0xa04] = 0x40000100
        0x000009f2:    2000        .       MOVS     r0,#0
        0x000009f4:    6008        .`      STR      r0,[r1,#0]
        0x000009f6:    4904        .I      LDR      r1,[pc,#16] ; [0xa08] = 0x1964
        0x000009f8:    a004        ..      ADR      r0,{pc}+0x14 ; 0xa0c
        0x000009fa:    f000fb71    ..q.    BL       __0printf$8 ; 0x10e0
        0x000009fe:    bd10        ..      POP      {r4,pc}
    $d
        0x00000a00:    20000010    ...     DCD    536870928
        0x00000a04:    40000100    ...@    DCD    1073742080
        0x00000a08:    00001964    d...    DCD    6500
        0x00000a0c:    250a0d20     ..%    DCD    621415712
        0x00000a10:    20212073    s !     DCD    539041907
        0x00000a14:    0a0d0a0d    ....    DCD    168626701
        0x00000a18:    00000000    ....    DCD    0
    $t
    i.Search_Valid_Page
    Search_Valid_Page
        0x00000a1c:    b5f8        ..      PUSH     {r3-r7,lr}
        0x00000a1e:    f7fffd69    ..i.    BL       FMC_Enable ; 0x4f4
        0x00000a22:    4e2b        +N      LDR      r6,[pc,#172] ; [0xad0] = 0x20000020
        0x00000a24:    6870        ph      LDR      r0,[r6,#4]
        0x00000a26:    0040        @.      LSLS     r0,r0,#1
        0x00000a28:    f000fdfc    ....    BL       malloc ; 0x1624
        0x00000a2c:    4607        .F      MOV      r7,r0
        0x00000a2e:    2400        .$      MOVS     r4,#0
        0x00000a30:    4d28        (M      LDR      r5,[pc,#160] ; [0xad4] = 0x4000c000
        0x00000a32:    e007        ..      B        0xa44 ; Search_Valid_Page + 40
        0x00000a34:    6968        hi      LDR      r0,[r5,#0x14]
        0x00000a36:    0261        a.      LSLS     r1,r4,#9
        0x00000a38:    1840        @.      ADDS     r0,r0,r1
        0x00000a3a:    f7fffdbb    ....    BL       FMC_Read ; 0x5b4
        0x00000a3e:    0061        a.      LSLS     r1,r4,#1
        0x00000a40:    5278        xR      STRH     r0,[r7,r1]
        0x00000a42:    1c64        d.      ADDS     r4,r4,#1
        0x00000a44:    6871        qh      LDR      r1,[r6,#4]
        0x00000a46:    428c        .B      CMP      r4,r1
        0x00000a48:    d3f4        ..      BCC      0xa34 ; Search_Valid_Page + 24
        0x00000a4a:    2000        .       MOVS     r0,#0
        0x00000a4c:    4a22        "J      LDR      r2,[pc,#136] ; [0xad8] = 0xffff
        0x00000a4e:    e005        ..      B        0xa5c ; Search_Valid_Page + 64
        0x00000a50:    0043        C.      LSLS     r3,r0,#1
        0x00000a52:    5afb        .Z      LDRH     r3,[r7,r3]
        0x00000a54:    4293        .B      CMP      r3,r2
        0x00000a56:    d000        ..      BEQ      0xa5a ; Search_Valid_Page + 62
        0x00000a58:    6030        0`      STR      r0,[r6,#0]
        0x00000a5a:    1c40        @.      ADDS     r0,r0,#1
        0x00000a5c:    4288        .B      CMP      r0,r1
        0x00000a5e:    d3f7        ..      BCC      0xa50 ; Search_Valid_Page + 52
        0x00000a60:    6830        0h      LDR      r0,[r6,#0]
        0x00000a62:    2402        .$      MOVS     r4,#2
        0x00000a64:    0041        A.      LSLS     r1,r0,#1
        0x00000a66:    5a79        yZ      LDRH     r1,[r7,r1]
        0x00000a68:    4291        .B      CMP      r1,r2
        0x00000a6a:    6969        ii      LDR      r1,[r5,#0x14]
        0x00000a6c:    d106        ..      BNE      0xa7c ; Search_Valid_Page + 96
        0x00000a6e:    0240        @.      LSLS     r0,r0,#9
        0x00000a70:    1808        ..      ADDS     r0,r1,r0
        0x00000a72:    4919        .I      LDR      r1,[pc,#100] ; [0xad8] = 0xffff
        0x00000a74:    43c9        .C      MVNS     r1,r1
        0x00000a76:    f7fffdc9    ....    BL       FMC_Write ; 0x60c
        0x00000a7a:    e025        %.      B        0xac8 ; Search_Valid_Page + 172
        0x00000a7c:    0240        @.      LSLS     r0,r0,#9
        0x00000a7e:    1808        ..      ADDS     r0,r1,r0
        0x00000a80:    f7fffd98    ....    BL       FMC_Read ; 0x5b4
        0x00000a84:    0201        ..      LSLS     r1,r0,#8
        0x00000a86:    0e09        ..      LSRS     r1,r1,#24
        0x00000a88:    0e00        ..      LSRS     r0,r0,#24
        0x00000a8a:    29ff        .)      CMP      r1,#0xff
        0x00000a8c:    d01c        ..      BEQ      0xac8 ; Search_Valid_Page + 172
        0x00000a8e:    6932        2i      LDR      r2,[r6,#0x10]
        0x00000a90:    2404        .$      MOVS     r4,#4
        0x00000a92:    5450        PT      STRB     r0,[r2,r1]
        0x00000a94:    6968        hi      LDR      r0,[r5,#0x14]
        0x00000a96:    6831        1h      LDR      r1,[r6,#0]
        0x00000a98:    0249        I.      LSLS     r1,r1,#9
        0x00000a9a:    1909        ..      ADDS     r1,r1,r4
        0x00000a9c:    1840        @.      ADDS     r0,r0,r1
        0x00000a9e:    f7fffd89    ....    BL       FMC_Read ; 0x5b4
        0x00000aa2:    0402        ..      LSLS     r2,r0,#16
        0x00000aa4:    b2c1        ..      UXTB     r1,r0
        0x00000aa6:    0e13        ..      LSRS     r3,r2,#24
        0x00000aa8:    29ff        .)      CMP      r1,#0xff
        0x00000aaa:    d00d        ..      BEQ      0xac8 ; Search_Valid_Page + 172
        0x00000aac:    6932        2i      LDR      r2,[r6,#0x10]
        0x00000aae:    5453        ST      STRB     r3,[r2,r1]
        0x00000ab0:    0201        ..      LSLS     r1,r0,#8
        0x00000ab2:    0e09        ..      LSRS     r1,r1,#24
        0x00000ab4:    0e00        ..      LSRS     r0,r0,#24
        0x00000ab6:    29ff        .)      CMP      r1,#0xff
        0x00000ab8:    d008        ..      BEQ      0xacc ; Search_Valid_Page + 176
        0x00000aba:    5450        PT      STRB     r0,[r2,r1]
        0x00000abc:    2001        .       MOVS     r0,#1
        0x00000abe:    0240        @.      LSLS     r0,r0,#9
        0x00000ac0:    1d24        $.      ADDS     r4,r4,#4
        0x00000ac2:    4284        .B      CMP      r4,r0
        0x00000ac4:    d3e6        ..      BCC      0xa94 ; Search_Valid_Page + 120
        0x00000ac6:    bdf8        ..      POP      {r3-r7,pc}
        0x00000ac8:    60f4        .`      STR      r4,[r6,#0xc]
        0x00000aca:    bdf8        ..      POP      {r3-r7,pc}
        0x00000acc:    1ca4        ..      ADDS     r4,r4,#2
        0x00000ace:    e7fb        ..      B        0xac8 ; Search_Valid_Page + 172
    $d
        0x00000ad0:    20000020     ..     DCD    536870944
        0x00000ad4:    4000c000    ...@    DCD    1073790976
        0x00000ad8:    0000ffff    ....    DCD    65535
    $t
    i.SendChar
    SendChar
        0x00000adc:    4906        .I      LDR      r1,[pc,#24] ; [0xaf8] = 0x40070000
        0x00000ade:    698a        .i      LDR      r2,[r1,#0x18]
        0x00000ae0:    0212        ..      LSLS     r2,r2,#8
        0x00000ae2:    d4fc        ..      BMI      0xade ; SendChar + 2
        0x00000ae4:    6008        .`      STR      r0,[r1,#0]
        0x00000ae6:    280a        .(      CMP      r0,#0xa
        0x00000ae8:    d104        ..      BNE      0xaf4 ; SendChar + 24
        0x00000aea:    6988        .i      LDR      r0,[r1,#0x18]
        0x00000aec:    0200        ..      LSLS     r0,r0,#8
        0x00000aee:    d4fc        ..      BMI      0xaea ; SendChar + 14
        0x00000af0:    200d        .       MOVS     r0,#0xd
        0x00000af2:    6008        .`      STR      r0,[r1,#0]
        0x00000af4:    4770        pG      BX       lr
    $d
        0x00000af6:    0000        ..      DCW    0
        0x00000af8:    40070000    ...@    DCD    1074200576
    $t
    i.SoftwareRTC
    SoftwareRTC
        0x00000afc:    b570        p.      PUSH     {r4-r6,lr}
        0x00000afe:    4c1a        .L      LDR      r4,[pc,#104] ; [0xb68] = 0x20000010
        0x00000b00:    7825        %x      LDRB     r5,[r4,#0]
        0x00000b02:    06a8        ..      LSLS     r0,r5,#26
        0x00000b04:    d52e        ..      BPL      0xb64 ; SoftwareRTC + 104
        0x00000b06:    79a0        .y      LDRB     r0,[r4,#6]
        0x00000b08:    210a        .!      MOVS     r1,#0xa
        0x00000b0a:    1c40        @.      ADDS     r0,r0,#1
        0x00000b0c:    b2c0        ..      UXTB     r0,r0
        0x00000b0e:    71a0        .q      STRB     r0,[r4,#6]
        0x00000b10:    4606        .F      MOV      r6,r0
        0x00000b12:    f7fffb1b    ....    BL       __aeabi_uidiv ; 0x14c
        0x00000b16:    2900        .)      CMP      r1,#0
        0x00000b18:    d102        ..      BNE      0xb20 ; SoftwareRTC + 36
        0x00000b1a:    2040        @       MOVS     r0,#0x40
        0x00000b1c:    4305        .C      ORRS     r5,r5,r0
        0x00000b1e:    7025        %p      STRB     r5,[r4,#0]
        0x00000b20:    2000        .       MOVS     r0,#0
        0x00000b22:    2e3c        <.      CMP      r6,#0x3c
        0x00000b24:    d103        ..      BNE      0xb2e ; SoftwareRTC + 50
        0x00000b26:    71a0        .q      STRB     r0,[r4,#6]
        0x00000b28:    7961        ay      LDRB     r1,[r4,#5]
        0x00000b2a:    1c49        I.      ADDS     r1,r1,#1
        0x00000b2c:    7161        aq      STRB     r1,[r4,#5]
        0x00000b2e:    7961        ay      LDRB     r1,[r4,#5]
        0x00000b30:    293c        <)      CMP      r1,#0x3c
        0x00000b32:    d103        ..      BNE      0xb3c ; SoftwareRTC + 64
        0x00000b34:    7160        `q      STRB     r0,[r4,#5]
        0x00000b36:    7921        !y      LDRB     r1,[r4,#4]
        0x00000b38:    1c49        I.      ADDS     r1,r1,#1
        0x00000b3a:    7121        !q      STRB     r1,[r4,#4]
        0x00000b3c:    7921        !y      LDRB     r1,[r4,#4]
        0x00000b3e:    2918        .)      CMP      r1,#0x18
        0x00000b40:    d106        ..      BNE      0xb50 ; SoftwareRTC + 84
        0x00000b42:    7120         q      STRB     r0,[r4,#4]
        0x00000b44:    78a0        .x      LDRB     r0,[r4,#2]
        0x00000b46:    1c40        @.      ADDS     r0,r0,#1
        0x00000b48:    70a0        .p      STRB     r0,[r4,#2]
        0x00000b4a:    78e0        .x      LDRB     r0,[r4,#3]
        0x00000b4c:    1c40        @.      ADDS     r0,r0,#1
        0x00000b4e:    70e0        .p      STRB     r0,[r4,#3]
        0x00000b50:    79a3        .y      LDRB     r3,[r4,#6]
        0x00000b52:    7962        by      LDRB     r2,[r4,#5]
        0x00000b54:    7921        !y      LDRB     r1,[r4,#4]
        0x00000b56:    a005        ..      ADR      r0,{pc}+0x16 ; 0xb6c
        0x00000b58:    f000fac2    ....    BL       __0printf$8 ; 0x10e0
        0x00000b5c:    7820         x      LDRB     r0,[r4,#0]
        0x00000b5e:    21df        .!      MOVS     r1,#0xdf
        0x00000b60:    4008        .@      ANDS     r0,r0,r1
        0x00000b62:    7020         p      STRB     r0,[r4,#0]
        0x00000b64:    bd70        p.      POP      {r4-r6,pc}
    $d
        0x00000b66:    0000        ..      DCW    0
        0x00000b68:    20000010    ...     DCD    536870928
        0x00000b6c:    3a2e7268    hr.:    DCD    976122472
        0x00000b70:    3a206425    %d :    DCD    975201317
        0x00000b74:    3a6e696d    min:    DCD    980314477
        0x00000b78:    3a642520     %d:    DCD    979641632
        0x00000b7c:    63657320     sec    DCD    1667592992
        0x00000b80:    6425203a    : %d    DCD    1680154682
        0x00000b84:    00000d0a    ....    DCD    3338
    $t
    i.SoftwareYMD
    SoftwareYMD
        0x00000b88:    b510        ..      PUSH     {r4,lr}
        0x00000b8a:    b08e        ..      SUB      sp,sp,#0x38
        0x00000b8c:    2230        0"      MOVS     r2,#0x30
        0x00000b8e:    4918        .I      LDR      r1,[pc,#96] ; [0xbf0] = 0x1978
        0x00000b90:    a801        ..      ADD      r0,sp,#4
        0x00000b92:    f7fffb05    ....    BL       __aeabi_memcpy ; 0x1a0
        0x00000b96:    4c17        .L      LDR      r4,[pc,#92] ; [0xbf4] = 0x20000010
        0x00000b98:    68e0        .h      LDR      r0,[r4,#0xc]
        0x00000b9a:    f000fd01    ....    BL       isLeapYear ; 0x15a0
        0x00000b9e:    9902        ..      LDR      r1,[sp,#8]
        0x00000ba0:    1840        @.      ADDS     r0,r0,r1
        0x00000ba2:    9002        ..      STR      r0,[sp,#8]
        0x00000ba4:    78a0        .x      LDRB     r0,[r4,#2]
        0x00000ba6:    79e1        .y      LDRB     r1,[r4,#7]
        0x00000ba8:    4288        .B      CMP      r0,r1
        0x00000baa:    d01f        ..      BEQ      0xbec ; SoftwareYMD + 100
        0x00000bac:    71e0        .q      STRB     r0,[r4,#7]
        0x00000bae:    7861        ax      LDRB     r1,[r4,#1]
        0x00000bb0:    ab01        ..      ADD      r3,sp,#4
        0x00000bb2:    008a        ..      LSLS     r2,r1,#2
        0x00000bb4:    18d2        ..      ADDS     r2,r2,r3
        0x00000bb6:    3a80        .:      SUBS     r2,r2,#0x80
        0x00000bb8:    6fd3        .o      LDR      r3,[r2,#0x7c]
        0x00000bba:    2201        ."      MOVS     r2,#1
        0x00000bbc:    4283        .B      CMP      r3,r0
        0x00000bbe:    da02        ..      BGE      0xbc6 ; SoftwareYMD + 62
        0x00000bc0:    70a2        .p      STRB     r2,[r4,#2]
        0x00000bc2:    1c49        I.      ADDS     r1,r1,#1
        0x00000bc4:    7061        ap      STRB     r1,[r4,#1]
        0x00000bc6:    78e0        .x      LDRB     r0,[r4,#3]
        0x00000bc8:    2807        .(      CMP      r0,#7
        0x00000bca:    d900        ..      BLS      0xbce ; SoftwareYMD + 70
        0x00000bcc:    70e2        .p      STRB     r2,[r4,#3]
        0x00000bce:    b2c8        ..      UXTB     r0,r1
        0x00000bd0:    280c        .(      CMP      r0,#0xc
        0x00000bd2:    d903        ..      BLS      0xbdc ; SoftwareYMD + 84
        0x00000bd4:    7062        bp      STRB     r2,[r4,#1]
        0x00000bd6:    68e0        .h      LDR      r0,[r4,#0xc]
        0x00000bd8:    1c40        @.      ADDS     r0,r0,#1
        0x00000bda:    60e0        .`      STR      r0,[r4,#0xc]
        0x00000bdc:    78e0        .x      LDRB     r0,[r4,#3]
        0x00000bde:    9000        ..      STR      r0,[sp,#0]
        0x00000be0:    78a3        .x      LDRB     r3,[r4,#2]
        0x00000be2:    7862        bx      LDRB     r2,[r4,#1]
        0x00000be4:    a004        ..      ADR      r0,{pc}+0x14 ; 0xbf8
        0x00000be6:    68e1        .h      LDR      r1,[r4,#0xc]
        0x00000be8:    f000fa7a    ..z.    BL       __0printf$8 ; 0x10e0
        0x00000bec:    b00e        ..      ADD      sp,sp,#0x38
        0x00000bee:    bd10        ..      POP      {r4,pc}
    $d
        0x00000bf0:    00001978    x...    DCD    6520
        0x00000bf4:    20000010    ...     DCD    536870928
        0x00000bf8:    64253a59    Y:%d    DCD    1680161369
        0x00000bfc:    3a4d202c    , M:    DCD    978133036
        0x00000c00:    202c6425    %d,     DCD    539780133
        0x00000c04:    64253a44    D:%d    DCD    1680161348
        0x00000c08:    6557202c    , We    DCD    1700208684
        0x00000c0c:    796c6b65    ekly    DCD    2037148517
        0x00000c10:    0a64253a    :%d.    DCD    174335290
        0x00000c14:    0000000d    ....    DCD    13
    $t
    i.SystemCoreClockUpdate
    SystemCoreClockUpdate
        0x00000c18:    b5f8        ..      PUSH     {r3-r7,lr}
        0x00000c1a:    4d1d        .M      LDR      r5,[pc,#116] ; [0xc90] = 0x40000200
        0x00000c1c:    6928        (i      LDR      r0,[r5,#0x10]
        0x00000c1e:    491c        .I      LDR      r1,[pc,#112] ; [0xc90] = 0x40000200
        0x00000c20:    0744        D.      LSLS     r4,r0,#29
        0x00000c22:    a01c        ..      ADR      r0,{pc}+0x72 ; 0xc94
        0x00000c24:    6800        .h      LDR      r0,[r0,#0]
        0x00000c26:    9000        ..      STR      r0,[sp,#0]
        0x00000c28:    0f64        d.      LSRS     r4,r4,#29
        0x00000c2a:    2000        .       MOVS     r0,#0
        0x00000c2c:    3140        @1      ADDS     r1,r1,#0x40
        0x00000c2e:    6809        .h      LDR      r1,[r1,#0]
        0x00000c30:    2205        ."      MOVS     r2,#5
        0x00000c32:    0412        ..      LSLS     r2,r2,#16
        0x00000c34:    4211        .B      TST      r1,r2
        0x00000c36:    d116        ..      BNE      0xc66 ; SystemCoreClockUpdate + 78
        0x00000c38:    0308        ..      LSLS     r0,r1,#12
        0x00000c3a:    d501        ..      BPL      0xc40 ; SystemCoreClockUpdate + 40
        0x00000c3c:    4816        .H      LDR      r0,[pc,#88] ; [0xc98] = 0xb71b00
        0x00000c3e:    e000        ..      B        0xc42 ; SystemCoreClockUpdate + 42
        0x00000c40:    4816        .H      LDR      r0,[pc,#88] ; [0xc9c] = 0x1e84800
        0x00000c42:    038a        ..      LSLS     r2,r1,#14
        0x00000c44:    d40f        ..      BMI      0xc66 ; SystemCoreClockUpdate + 78
        0x00000c46:    040a        ..      LSLS     r2,r1,#16
        0x00000c48:    0f92        ..      LSRS     r2,r2,#30
        0x00000c4a:    466b        kF      MOV      r3,sp
        0x00000c4c:    5c9b        .\      LDRB     r3,[r3,r2]
        0x00000c4e:    05ca        ..      LSLS     r2,r1,#23
        0x00000c50:    0489        ..      LSLS     r1,r1,#18
        0x00000c52:    0dd2        ..      LSRS     r2,r2,#23
        0x00000c54:    0ec9        ..      LSRS     r1,r1,#27
        0x00000c56:    1c89        ..      ADDS     r1,r1,#2
        0x00000c58:    0880        ..      LSRS     r0,r0,#2
        0x00000c5a:    1c92        ..      ADDS     r2,r2,#2
        0x00000c5c:    4359        YC      MULS     r1,r3,r1
        0x00000c5e:    4350        PC      MULS     r0,r2,r0
        0x00000c60:    f7fffa74    ..t.    BL       __aeabi_uidiv ; 0x14c
        0x00000c64:    0080        ..      LSLS     r0,r0,#2
        0x00000c66:    4e0e        .N      LDR      r6,[pc,#56] ; [0xca0] = 0x20000000
        0x00000c68:    2c02        .,      CMP      r4,#2
        0x00000c6a:    60b0        .`      STR      r0,[r6,#8]
        0x00000c6c:    d002        ..      BEQ      0xc74 ; SystemCoreClockUpdate + 92
        0x00000c6e:    490d        .I      LDR      r1,[pc,#52] ; [0xca4] = 0x18a4
        0x00000c70:    00a0        ..      LSLS     r0,r4,#2
        0x00000c72:    5808        .X      LDR      r0,[r1,r0]
        0x00000c74:    6a29        )j      LDR      r1,[r5,#0x20]
        0x00000c76:    0709        ..      LSLS     r1,r1,#28
        0x00000c78:    0f09        ..      LSRS     r1,r1,#28
        0x00000c7a:    1c49        I.      ADDS     r1,r1,#1
        0x00000c7c:    f7fffa66    ..f.    BL       __aeabi_uidiv ; 0x14c
        0x00000c80:    4909        .I      LDR      r1,[pc,#36] ; [0xca8] = 0xf4240
        0x00000c82:    6030        0`      STR      r0,[r6,#0]
        0x00000c84:    104a        J.      ASRS     r2,r1,#1
        0x00000c86:    1880        ..      ADDS     r0,r0,r2
        0x00000c88:    f7fffa60    ..`.    BL       __aeabi_uidiv ; 0x14c
        0x00000c8c:    6070        p`      STR      r0,[r6,#4]
        0x00000c8e:    bdf8        ..      POP      {r3-r7,pc}
    $d
        0x00000c90:    40000200    ...@    DCD    1073742336
        0x00000c94:    04020201    ....    DCD    67240449
        0x00000c98:    00b71b00    ....    DCD    12000000
        0x00000c9c:    01e84800    .H..    DCD    32000000
        0x00000ca0:    20000000    ...     DCD    536870912
        0x00000ca4:    000018a4    ....    DCD    6308
        0x00000ca8:    000f4240    @B..    DCD    1000000
    $t
    i.SystemInit
    SystemInit
        0x00000cac:    b510        ..      PUSH     {r4,lr}
        0x00000cae:    2159        Y!      MOVS     r1,#0x59
        0x00000cb0:    480a        .H      LDR      r0,[pc,#40] ; [0xcdc] = 0x40000100
        0x00000cb2:    2316        .#      MOVS     r3,#0x16
        0x00000cb4:    2288        ."      MOVS     r2,#0x88
        0x00000cb6:    6001        .`      STR      r1,[r0,#0]
        0x00000cb8:    6003        .`      STR      r3,[r0,#0]
        0x00000cba:    6002        .`      STR      r2,[r0,#0]
        0x00000cbc:    6804        .h      LDR      r4,[r0,#0]
        0x00000cbe:    2c00        .,      CMP      r4,#0
        0x00000cc0:    d0f9        ..      BEQ      0xcb6 ; SystemInit + 10
        0x00000cc2:    4907        .I      LDR      r1,[pc,#28] ; [0xce0] = 0x40000200
        0x00000cc4:    680b        .h      LDR      r3,[r1,#0]
        0x00000cc6:    2207        ."      MOVS     r2,#7
        0x00000cc8:    0512        ..      LSLS     r2,r2,#20
        0x00000cca:    4393        .C      BICS     r3,r3,r2
        0x00000ccc:    600b        .`      STR      r3,[r1,#0]
        0x00000cce:    680b        .h      LDR      r3,[r1,#0]
        0x00000cd0:    4313        .C      ORRS     r3,r3,r2
        0x00000cd2:    600b        .`      STR      r3,[r1,#0]
        0x00000cd4:    2100        .!      MOVS     r1,#0
        0x00000cd6:    6001        .`      STR      r1,[r0,#0]
        0x00000cd8:    bd10        ..      POP      {r4,pc}
    $d
        0x00000cda:    0000        ..      DCW    0
        0x00000cdc:    40000100    ...@    DCD    1073742080
        0x00000ce0:    40000200    ...@    DCD    1073742336
    $t
    i.TIMER2_Init
    TIMER2_Init
        0x00000ce4:    b510        ..      PUSH     {r4,lr}
        0x00000ce6:    4c09        .L      LDR      r4,[pc,#36] ; [0xd0c] = 0x40051000
        0x00000ce8:    2201        ."      MOVS     r2,#1
        0x00000cea:    06d1        ..      LSLS     r1,r2,#27
        0x00000cec:    4620         F      MOV      r0,r4
        0x00000cee:    f000f863    ..c.    BL       TIMER_Open ; 0xdb8
        0x00000cf2:    6820         h      LDR      r0,[r4,#0]
        0x00000cf4:    0461        a.      LSLS     r1,r4,#17
        0x00000cf6:    4308        .C      ORRS     r0,r0,r1
        0x00000cf8:    6020         `      STR      r0,[r4,#0]
        0x00000cfa:    14c8        ..      ASRS     r0,r1,#19
        0x00000cfc:    4904        .I      LDR      r1,[pc,#16] ; [0xd10] = 0xe000e100
        0x00000cfe:    6008        .`      STR      r0,[r1,#0]
        0x00000d00:    6820         h      LDR      r0,[r4,#0]
        0x00000d02:    0589        ..      LSLS     r1,r1,#22
        0x00000d04:    4308        .C      ORRS     r0,r0,r1
        0x00000d06:    6020         `      STR      r0,[r4,#0]
        0x00000d08:    bd10        ..      POP      {r4,pc}
    $d
        0x00000d0a:    0000        ..      DCW    0
        0x00000d0c:    40051000    ...@    DCD    1074073600
        0x00000d10:    e000e100    ....    DCD    3758153984
    $t
    i.TIMER3_Init
    TIMER3_Init
        0x00000d14:    b510        ..      PUSH     {r4,lr}
        0x00000d16:    4c0a        .L      LDR      r4,[pc,#40] ; [0xd40] = 0x40051020
        0x00000d18:    227d        }"      MOVS     r2,#0x7d
        0x00000d1a:    2101        .!      MOVS     r1,#1
        0x00000d1c:    00d2        ..      LSLS     r2,r2,#3
        0x00000d1e:    06c9        ..      LSLS     r1,r1,#27
        0x00000d20:    4620         F      MOV      r0,r4
        0x00000d22:    f000f849    ..I.    BL       TIMER_Open ; 0xdb8
        0x00000d26:    6820         h      LDR      r0,[r4,#0]
        0x00000d28:    0621        !.      LSLS     r1,r4,#24
        0x00000d2a:    4308        .C      ORRS     r0,r0,r1
        0x00000d2c:    6020         `      STR      r0,[r4,#0]
        0x00000d2e:    1488        ..      ASRS     r0,r1,#18
        0x00000d30:    4904        .I      LDR      r1,[pc,#16] ; [0xd44] = 0xe000e100
        0x00000d32:    6008        .`      STR      r0,[r1,#0]
        0x00000d34:    6820         h      LDR      r0,[r4,#0]
        0x00000d36:    0589        ..      LSLS     r1,r1,#22
        0x00000d38:    4308        .C      ORRS     r0,r0,r1
        0x00000d3a:    6020         `      STR      r0,[r4,#0]
        0x00000d3c:    bd10        ..      POP      {r4,pc}
    $d
        0x00000d3e:    0000        ..      DCW    0
        0x00000d40:    40051020     ..@    DCD    1074073632
        0x00000d44:    e000e100    ....    DCD    3758153984
    $t
    i.TIMER_GetModuleClock
    TIMER_GetModuleClock
        0x00000d48:    b510        ..      PUSH     {r4,lr}
        0x00000d4a:    b088        ..      SUB      sp,sp,#0x20
        0x00000d4c:    4604        .F      MOV      r4,r0
        0x00000d4e:    2220         "      MOVS     r2,#0x20
        0x00000d50:    4915        .I      LDR      r1,[pc,#84] ; [0xda8] = 0x1944
        0x00000d52:    4668        hF      MOV      r0,sp
        0x00000d54:    f7fffa24    ..$.    BL       __aeabi_memcpy ; 0x1a0
        0x00000d58:    4b14        .K      LDR      r3,[pc,#80] ; [0xdac] = 0x40050000
        0x00000d5a:    4a14        .J      LDR      r2,[pc,#80] ; [0xdac] = 0x40050000
        0x00000d5c:    4814        .H      LDR      r0,[pc,#80] ; [0xdb0] = 0x40000200
        0x00000d5e:    3320         3      ADDS     r3,r3,#0x20
        0x00000d60:    4294        .B      CMP      r4,r2
        0x00000d62:    d102        ..      BNE      0xd6a ; TIMER_GetModuleClock + 34
        0x00000d64:    6940        @i      LDR      r0,[r0,#0x14]
        0x00000d66:    0a00        ..      LSRS     r0,r0,#8
        0x00000d68:    e00b        ..      B        0xd82 ; TIMER_GetModuleClock + 58
        0x00000d6a:    429c        .B      CMP      r4,r3
        0x00000d6c:    d102        ..      BNE      0xd74 ; TIMER_GetModuleClock + 44
        0x00000d6e:    6940        @i      LDR      r0,[r0,#0x14]
        0x00000d70:    0b00        ..      LSRS     r0,r0,#12
        0x00000d72:    e006        ..      B        0xd82 ; TIMER_GetModuleClock + 58
        0x00000d74:    490f        .I      LDR      r1,[pc,#60] ; [0xdb4] = 0x40051000
        0x00000d76:    6940        @i      LDR      r0,[r0,#0x14]
        0x00000d78:    428c        .B      CMP      r4,r1
        0x00000d7a:    d101        ..      BNE      0xd80 ; TIMER_GetModuleClock + 56
        0x00000d7c:    0c00        ..      LSRS     r0,r0,#16
        0x00000d7e:    e000        ..      B        0xd82 ; TIMER_GetModuleClock + 58
        0x00000d80:    0d00        ..      LSRS     r0,r0,#20
        0x00000d82:    0741        A.      LSLS     r1,r0,#29
        0x00000d84:    0f49        I.      LSRS     r1,r1,#29
        0x00000d86:    2902        .)      CMP      r1,#2
        0x00000d88:    d004        ..      BEQ      0xd94 ; TIMER_GetModuleClock + 76
        0x00000d8a:    0088        ..      LSLS     r0,r1,#2
        0x00000d8c:    4669        iF      MOV      r1,sp
        0x00000d8e:    5808        .X      LDR      r0,[r1,r0]
        0x00000d90:    b008        ..      ADD      sp,sp,#0x20
        0x00000d92:    bd10        ..      POP      {r4,pc}
        0x00000d94:    4294        .B      CMP      r4,r2
        0x00000d96:    d001        ..      BEQ      0xd9c ; TIMER_GetModuleClock + 84
        0x00000d98:    429c        .B      CMP      r4,r3
        0x00000d9a:    d102        ..      BNE      0xda2 ; TIMER_GetModuleClock + 90
        0x00000d9c:    f7fffab4    ....    BL       CLK_GetPCLK0Freq ; 0x308
        0x00000da0:    e7f6        ..      B        0xd90 ; TIMER_GetModuleClock + 72
        0x00000da2:    f7fffac1    ....    BL       CLK_GetPCLK1Freq ; 0x328
        0x00000da6:    e7f3        ..      B        0xd90 ; TIMER_GetModuleClock + 72
    $d
        0x00000da8:    00001944    D...    DCD    6468
        0x00000dac:    40050000    ...@    DCD    1074069504
        0x00000db0:    40000200    ...@    DCD    1073742336
        0x00000db4:    40051000    ...@    DCD    1074073600
    $t
    i.TIMER_Open
    TIMER_Open
        0x00000db8:    b5f7        ..      PUSH     {r0-r2,r4-r7,lr}
        0x00000dba:    4617        .F      MOV      r7,r2
        0x00000dbc:    4606        .F      MOV      r6,r0
        0x00000dbe:    f7ffffc3    ....    BL       TIMER_GetModuleClock ; 0xd48
        0x00000dc2:    4605        .F      MOV      r5,r0
        0x00000dc4:    2400        .$      MOVS     r4,#0
        0x00000dc6:    0840        @.      LSRS     r0,r0,#1
        0x00000dc8:    42b8        .B      CMP      r0,r7
        0x00000dca:    d801        ..      BHI      0xdd0 ; TIMER_Open + 24
        0x00000dcc:    2002        .       MOVS     r0,#2
        0x00000dce:    e008        ..      B        0xde2 ; TIMER_Open + 42
        0x00000dd0:    4639        9F      MOV      r1,r7
        0x00000dd2:    4628        (F      MOV      r0,r5
        0x00000dd4:    f7fff9ba    ....    BL       __aeabi_uidiv ; 0x14c
        0x00000dd8:    0e04        ..      LSRS     r4,r0,#24
        0x00000dda:    d002        ..      BEQ      0xde2 ; TIMER_Open + 42
        0x00000ddc:    1c61        a.      ADDS     r1,r4,#1
        0x00000dde:    f7fff9b5    ....    BL       __aeabi_uidiv ; 0x14c
        0x00000de2:    9901        ..      LDR      r1,[sp,#4]
        0x00000de4:    4321        !C      ORRS     r1,r1,r4
        0x00000de6:    6031        1`      STR      r1,[r6,#0]
        0x00000de8:    6070        p`      STR      r0,[r6,#4]
        0x00000dea:    1c64        d.      ADDS     r4,r4,#1
        0x00000dec:    4360        `C      MULS     r0,r4,r0
        0x00000dee:    4601        .F      MOV      r1,r0
        0x00000df0:    4628        (F      MOV      r0,r5
        0x00000df2:    f7fff9ab    ....    BL       __aeabi_uidiv ; 0x14c
        0x00000df6:    bdfe        ..      POP      {r1-r7,pc}
    i.TMR2_IRQHandler
    TMR2_IRQHandler
        0x00000df8:    4806        .H      LDR      r0,[pc,#24] ; [0xe14] = 0x40051000
        0x00000dfa:    6881        .h      LDR      r1,[r0,#8]
        0x00000dfc:    07c9        ..      LSLS     r1,r1,#31
        0x00000dfe:    0fc9        ..      LSRS     r1,r1,#31
        0x00000e00:    d006        ..      BEQ      0xe10 ; TMR2_IRQHandler + 24
        0x00000e02:    2101        .!      MOVS     r1,#1
        0x00000e04:    6081        .`      STR      r1,[r0,#8]
        0x00000e06:    4804        .H      LDR      r0,[pc,#16] ; [0xe18] = 0x20000010
        0x00000e08:    2220         "      MOVS     r2,#0x20
        0x00000e0a:    7801        .x      LDRB     r1,[r0,#0]
        0x00000e0c:    4311        .C      ORRS     r1,r1,r2
        0x00000e0e:    7001        .p      STRB     r1,[r0,#0]
        0x00000e10:    4770        pG      BX       lr
    $d
        0x00000e12:    0000        ..      DCW    0
        0x00000e14:    40051000    ...@    DCD    1074073600
        0x00000e18:    20000010    ...     DCD    536870928
    $t
    i.TMR3_IRQHandler
    TMR3_IRQHandler
        0x00000e1c:    b510        ..      PUSH     {r4,lr}
        0x00000e1e:    4806        .H      LDR      r0,[pc,#24] ; [0xe38] = 0x40051020
        0x00000e20:    6881        .h      LDR      r1,[r0,#8]
        0x00000e22:    07c9        ..      LSLS     r1,r1,#31
        0x00000e24:    0fc9        ..      LSRS     r1,r1,#31
        0x00000e26:    d005        ..      BEQ      0xe34 ; TMR3_IRQHandler + 24
        0x00000e28:    2101        .!      MOVS     r1,#1
        0x00000e2a:    6081        .`      STR      r1,[r0,#8]
        0x00000e2c:    f000fcfe    ....    BL       timer_counter ; 0x182c
        0x00000e30:    f000fbca    ....    BL       loop_1ms ; 0x15c8
        0x00000e34:    bd10        ..      POP      {r4,pc}
    $d
        0x00000e36:    0000        ..      DCW    0
        0x00000e38:    40051020     ..@    DCD    1074073632
    $t
    i.UART02_IRQHandler
    UART02_IRQHandler
        0x00000e3c:    4802        .H      LDR      r0,[pc,#8] ; [0xe48] = 0x40070000
        0x00000e3e:    69c1        .i      LDR      r1,[r0,#0x1c]
        0x00000e40:    05c9        ..      LSLS     r1,r1,#23
        0x00000e42:    d400        ..      BMI      0xe46 ; UART02_IRQHandler + 10
        0x00000e44:    69c0        .i      LDR      r0,[r0,#0x1c]
        0x00000e46:    4770        pG      BX       lr
    $d
        0x00000e48:    40070000    ...@    DCD    1074200576
    $t
    i.UART0_Init
    UART0_Init
        0x00000e4c:    b510        ..      PUSH     {r4,lr}
        0x00000e4e:    481e        .H      LDR      r0,[pc,#120] ; [0xec8] = 0x4000010
        0x00000e50:    f7fffd86    ....    BL       SYS_ResetModule ; 0x960
        0x00000e54:    4c1d        .L      LDR      r4,[pc,#116] ; [0xecc] = 0x40070000
        0x00000e56:    21e1        .!      MOVS     r1,#0xe1
        0x00000e58:    0249        I.      LSLS     r1,r1,#9
        0x00000e5a:    4620         F      MOV      r0,r4
        0x00000e5c:    f000f87c    ..|.    BL       UART_Open ; 0xf58
        0x00000e60:    2114        .!      MOVS     r1,#0x14
        0x00000e62:    4620         F      MOV      r0,r4
        0x00000e64:    f000f8ea    ....    BL       UART_SetTimeoutCnt ; 0x103c
        0x00000e68:    68a0        .h      LDR      r0,[r4,#8]
        0x00000e6a:    21f0        .!      MOVS     r1,#0xf0
        0x00000e6c:    4388        .C      BICS     r0,r0,r1
        0x00000e6e:    3010        .0      ADDS     r0,r0,#0x10
        0x00000e70:    60a0        .`      STR      r0,[r4,#8]
        0x00000e72:    6860        `h      LDR      r0,[r4,#4]
        0x00000e74:    2111        .!      MOVS     r1,#0x11
        0x00000e76:    4308        .C      ORRS     r0,r0,r1
        0x00000e78:    6060        ``      STR      r0,[r4,#4]
        0x00000e7a:    2001        .       MOVS     r0,#1
        0x00000e7c:    4914        .I      LDR      r1,[pc,#80] ; [0xed0] = 0xe000e100
        0x00000e7e:    0300        ..      LSLS     r0,r0,#12
        0x00000e80:    6008        .`      STR      r0,[r1,#0]
        0x00000e82:    f7fffa23    ..#.    BL       CLK_GetCPUFreq ; 0x2cc
        0x00000e86:    4601        .F      MOV      r1,r0
        0x00000e88:    a012        ..      ADR      r0,{pc}+0x4c ; 0xed4
        0x00000e8a:    f000f929    ..).    BL       __0printf$8 ; 0x10e0
        0x00000e8e:    f7fffa25    ..%.    BL       CLK_GetHXTFreq ; 0x2dc
        0x00000e92:    4601        .F      MOV      r1,r0
        0x00000e94:    a016        ..      ADR      r0,{pc}+0x5c ; 0xef0
        0x00000e96:    f000f923    ..#.    BL       __0printf$8 ; 0x10e0
        0x00000e9a:    f7fffa29    ..).    BL       CLK_GetLXTFreq ; 0x2f0
        0x00000e9e:    4601        .F      MOV      r1,r0
        0x00000ea0:    a019        ..      ADR      r0,{pc}+0x68 ; 0xf08
        0x00000ea2:    f000f91d    ....    BL       __0printf$8 ; 0x10e0
        0x00000ea6:    f7fffa2f    ../.    BL       CLK_GetPCLK0Freq ; 0x308
        0x00000eaa:    4601        .F      MOV      r1,r0
        0x00000eac:    a01c        ..      ADR      r0,{pc}+0x74 ; 0xf20
        0x00000eae:    f000f917    ....    BL       __0printf$8 ; 0x10e0
        0x00000eb2:    f7fffa39    ..9.    BL       CLK_GetPCLK1Freq ; 0x328
        0x00000eb6:    4601        .F      MOV      r1,r0
        0x00000eb8:    a020         .      ADR      r0,{pc}+0x84 ; 0xf3c
        0x00000eba:    f000f911    ....    BL       __0printf$8 ; 0x10e0
        0x00000ebe:    69a0        .i      LDR      r0,[r4,#0x18]
        0x00000ec0:    00c0        ..      LSLS     r0,r0,#3
        0x00000ec2:    d5fc        ..      BPL      0xebe ; UART0_Init + 114
        0x00000ec4:    bd10        ..      POP      {r4,pc}
    $d
        0x00000ec6:    0000        ..      DCW    0
        0x00000ec8:    04000010    ....    DCD    67108880
        0x00000ecc:    40070000    ...@    DCD    1074200576
        0x00000ed0:    e000e100    ....    DCD    3758153984
        0x00000ed4:    4c430a0d    ..CL    DCD    1279461901
        0x00000ed8:    65475f4b    K_Ge    DCD    1699176267
        0x00000edc:    55504374    tCPU    DCD    1431323508
        0x00000ee0:    71657246    Freq    DCD    1902473798
        0x00000ee4:    25203a20     : %    DCD    622869024
        0x00000ee8:    0a0d6438    8d..    DCD    168649784
        0x00000eec:    00000000    ....    DCD    0
        0x00000ef0:    5f4b4c43    CLK_    DCD    1598770243
        0x00000ef4:    48746547    GetH    DCD    1215587655
        0x00000ef8:    72465458    XTFr    DCD    1917211736
        0x00000efc:    3a207165    eq :    DCD    975204709
        0x00000f00:    64382520     %8d    DCD    1681401120
        0x00000f04:    00000a0d    ....    DCD    2573
        0x00000f08:    5f4b4c43    CLK_    DCD    1598770243
        0x00000f0c:    4c746547    GetL    DCD    1282696519
        0x00000f10:    72465458    XTFr    DCD    1917211736
        0x00000f14:    3a207165    eq :    DCD    975204709
        0x00000f18:    64382520     %8d    DCD    1681401120
        0x00000f1c:    00000a0d    ....    DCD    2573
        0x00000f20:    5f4b4c43    CLK_    DCD    1598770243
        0x00000f24:    50746547    GetP    DCD    1349805383
        0x00000f28:    304b4c43    CLK0    DCD    810241091
        0x00000f2c:    71657246    Freq    DCD    1902473798
        0x00000f30:    25203a20     : %    DCD    622869024
        0x00000f34:    0a0d6438    8d..    DCD    168649784
        0x00000f38:    00000000    ....    DCD    0
        0x00000f3c:    5f4b4c43    CLK_    DCD    1598770243
        0x00000f40:    50746547    GetP    DCD    1349805383
        0x00000f44:    314b4c43    CLK1    DCD    827018307
        0x00000f48:    71657246    Freq    DCD    1902473798
        0x00000f4c:    25203a20     : %    DCD    622869024
        0x00000f50:    0a0d6438    8d..    DCD    168649784
        0x00000f54:    00000000    ....    DCD    0
    $t
    i.UART_Open
    UART_Open
        0x00000f58:    b5f0        ..      PUSH     {r4-r7,lr}
        0x00000f5a:    b087        ..      SUB      sp,sp,#0x1c
        0x00000f5c:    460f        .F      MOV      r7,r1
        0x00000f5e:    4604        .F      MOV      r4,r0
        0x00000f60:    2500        .%      MOVS     r5,#0
        0x00000f62:    462e        .F      MOV      r6,r5
        0x00000f64:    2218        ."      MOVS     r2,#0x18
        0x00000f66:    492e        .I      LDR      r1,[pc,#184] ; [0x1020] = 0x18c4
        0x00000f68:    4668        hF      MOV      r0,sp
        0x00000f6a:    f7fff919    ....    BL       __aeabi_memcpy ; 0x1a0
        0x00000f6e:    492d        -I      LDR      r1,[pc,#180] ; [0x1024] = 0x40070000
        0x00000f70:    482d        -H      LDR      r0,[pc,#180] ; [0x1028] = 0x40000200
        0x00000f72:    4a2e        .J      LDR      r2,[pc,#184] ; [0x102c] = 0x40072000
        0x00000f74:    428c        .B      CMP      r4,r1
        0x00000f76:    d105        ..      BNE      0xf84 ; UART_Open + 44
        0x00000f78:    6943        Ci      LDR      r3,[r0,#0x14]
        0x00000f7a:    6a00        .j      LDR      r0,[r0,#0x20]
        0x00000f7c:    015b        [.      LSLS     r3,r3,#5
        0x00000f7e:    0f5d        ].      LSRS     r5,r3,#29
        0x00000f80:    0a00        ..      LSRS     r0,r0,#8
        0x00000f82:    e00f        ..      B        0xfa4 ; UART_Open + 76
        0x00000f84:    4b2a        *K      LDR      r3,[pc,#168] ; [0x1030] = 0x40071000
        0x00000f86:    429c        .B      CMP      r4,r3
        0x00000f88:    d106        ..      BNE      0xf98 ; UART_Open + 64
        0x00000f8a:    6943        Ci      LDR      r3,[r0,#0x14]
        0x00000f8c:    6a00        .j      LDR      r0,[r0,#0x20]
        0x00000f8e:    005b        [.      LSLS     r3,r3,#1
        0x00000f90:    0f5d        ].      LSRS     r5,r3,#29
        0x00000f92:    0400        ..      LSLS     r0,r0,#16
        0x00000f94:    0f06        ..      LSRS     r6,r0,#28
        0x00000f96:    e007        ..      B        0xfa8 ; UART_Open + 80
        0x00000f98:    4294        .B      CMP      r4,r2
        0x00000f9a:    d105        ..      BNE      0xfa8 ; UART_Open + 80
        0x00000f9c:    69c3        .i      LDR      r3,[r0,#0x1c]
        0x00000f9e:    6b00        .k      LDR      r0,[r0,#0x30]
        0x00000fa0:    015b        [.      LSLS     r3,r3,#5
        0x00000fa2:    0f5d        ].      LSRS     r5,r3,#29
        0x00000fa4:    0706        ..      LSLS     r6,r0,#28
        0x00000fa6:    0f36        6.      LSRS     r6,r6,#28
        0x00000fa8:    2000        .       MOVS     r0,#0
        0x00000faa:    6320         c      STR      r0,[r4,#0x30]
        0x00000fac:    2003        .       MOVS     r0,#3
        0x00000fae:    60e0        .`      STR      r0,[r4,#0xc]
        0x00000fb0:    68a0        .h      LDR      r0,[r4,#8]
        0x00000fb2:    4b20         K      LDR      r3,[pc,#128] ; [0x1034] = 0xfff0ff0f
        0x00000fb4:    4018        .@      ANDS     r0,r0,r3
        0x00000fb6:    60a0        .`      STR      r0,[r4,#8]
        0x00000fb8:    2d01        .-      CMP      r5,#1
        0x00000fba:    d002        ..      BEQ      0xfc2 ; UART_Open + 106
        0x00000fbc:    2d04        .-      CMP      r5,#4
        0x00000fbe:    d004        ..      BEQ      0xfca ; UART_Open + 114
        0x00000fc0:    e00d        ..      B        0xfde ; UART_Open + 134
        0x00000fc2:    f7fff9c1    ....    BL       CLK_GetPLLClockFreq ; 0x348
        0x00000fc6:    9001        ..      STR      r0,[sp,#4]
        0x00000fc8:    e009        ..      B        0xfde ; UART_Open + 134
        0x00000fca:    428c        .B      CMP      r4,r1
        0x00000fcc:    d001        ..      BEQ      0xfd2 ; UART_Open + 122
        0x00000fce:    4294        .B      CMP      r4,r2
        0x00000fd0:    d102        ..      BNE      0xfd8 ; UART_Open + 128
        0x00000fd2:    f7fff999    ....    BL       CLK_GetPCLK0Freq ; 0x308
        0x00000fd6:    e001        ..      B        0xfdc ; UART_Open + 132
        0x00000fd8:    f7fff9a6    ....    BL       CLK_GetPCLK1Freq ; 0x328
        0x00000fdc:    9004        ..      STR      r0,[sp,#0x10]
        0x00000fde:    2f00        ./      CMP      r7,#0
        0x00000fe0:    d01b        ..      BEQ      0x101a ; UART_Open + 194
        0x00000fe2:    00a9        ..      LSLS     r1,r5,#2
        0x00000fe4:    4668        hF      MOV      r0,sp
        0x00000fe6:    5840        @X      LDR      r0,[r0,r1]
        0x00000fe8:    1c71        q.      ADDS     r1,r6,#1
        0x00000fea:    f7fff8af    ....    BL       __aeabi_uidiv ; 0x14c
        0x00000fee:    4605        .F      MOV      r5,r0
        0x00000ff0:    0879        y.      LSRS     r1,r7,#1
        0x00000ff2:    1840        @.      ADDS     r0,r0,r1
        0x00000ff4:    4639        9F      MOV      r1,r7
        0x00000ff6:    f7fff8a9    ....    BL       __aeabi_uidiv ; 0x14c
        0x00000ffa:    490f        .I      LDR      r1,[pc,#60] ; [0x1038] = 0xffff
        0x00000ffc:    1e80        ..      SUBS     r0,r0,#2
        0x00000ffe:    4288        .B      CMP      r0,r1
        0x00001000:    d907        ..      BLS      0x1012 ; UART_Open + 186
        0x00001002:    00f9        ..      LSLS     r1,r7,#3
        0x00001004:    1868        h.      ADDS     r0,r5,r1
        0x00001006:    4639        9F      MOV      r1,r7
        0x00001008:    f7fff8a0    ....    BL       __aeabi_uidiv ; 0x14c
        0x0000100c:    0900        ..      LSRS     r0,r0,#4
        0x0000100e:    1e80        ..      SUBS     r0,r0,#2
        0x00001010:    e002        ..      B        0x1018 ; UART_Open + 192
        0x00001012:    2103        .!      MOVS     r1,#3
        0x00001014:    0709        ..      LSLS     r1,r1,#28
        0x00001016:    4308        .C      ORRS     r0,r0,r1
        0x00001018:    6260        `b      STR      r0,[r4,#0x24]
        0x0000101a:    b007        ..      ADD      sp,sp,#0x1c
        0x0000101c:    bdf0        ..      POP      {r4-r7,pc}
    $d
        0x0000101e:    0000        ..      DCW    0
        0x00001020:    000018c4    ....    DCD    6340
        0x00001024:    40070000    ...@    DCD    1074200576
        0x00001028:    40000200    ...@    DCD    1073742336
        0x0000102c:    40072000    . .@    DCD    1074208768
        0x00001030:    40071000    ...@    DCD    1074204672
        0x00001034:    fff0ff0f    ....    DCD    4293984015
        0x00001038:    0000ffff    ....    DCD    65535
    $t
    i.UART_SetTimeoutCnt
    UART_SetTimeoutCnt
        0x0000103c:    6a02        .j      LDR      r2,[r0,#0x20]
        0x0000103e:    0a12        ..      LSRS     r2,r2,#8
        0x00001040:    0212        ..      LSLS     r2,r2,#8
        0x00001042:    430a        .C      ORRS     r2,r2,r1
        0x00001044:    6202        .b      STR      r2,[r0,#0x20]
        0x00001046:    6841        Ah      LDR      r1,[r0,#4]
        0x00001048:    2201        ."      MOVS     r2,#1
        0x0000104a:    02d2        ..      LSLS     r2,r2,#11
        0x0000104c:    4311        .C      ORRS     r1,r1,r2
        0x0000104e:    6041        A`      STR      r1,[r0,#4]
        0x00001050:    4770        pG      BX       lr
        0x00001052:    0000        ..      MOVS     r0,r0
    i.Write_Data
    Write_Data
        0x00001054:    b5f8        ..      PUSH     {r3-r7,lr}
        0x00001056:    4e20         N      LDR      r6,[pc,#128] ; [0x10d8] = 0x20000020
        0x00001058:    4604        .F      MOV      r4,r0
        0x0000105a:    68b0        .h      LDR      r0,[r6,#8]
        0x0000105c:    460d        .F      MOV      r5,r1
        0x0000105e:    4284        .B      CMP      r4,r0
        0x00001060:    d901        ..      BLS      0x1066 ; Write_Data + 18
        0x00001062:    2003        .       MOVS     r0,#3
        0x00001064:    bdf8        ..      POP      {r3-r7,pc}
        0x00001066:    6930        0i      LDR      r0,[r6,#0x10]
        0x00001068:    5d00        .]      LDRB     r0,[r0,r4]
        0x0000106a:    42a8        .B      CMP      r0,r5
        0x0000106c:    d024        $.      BEQ      0x10b8 ; Write_Data + 100
        0x0000106e:    f7fffa41    ..A.    BL       FMC_Enable ; 0x4f4
        0x00001072:    68f0        .h      LDR      r0,[r6,#0xc]
        0x00001074:    4f19        .O      LDR      r7,[pc,#100] ; [0x10dc] = 0x4000c000
        0x00001076:    0781        ..      LSLS     r1,r0,#30
        0x00001078:    d023        #.      BEQ      0x10c2 ; Write_Data + 110
        0x0000107a:    6979        yi      LDR      r1,[r7,#0x14]
        0x0000107c:    6832        2h      LDR      r2,[r6,#0]
        0x0000107e:    1e80        ..      SUBS     r0,r0,#2
        0x00001080:    0252        R.      LSLS     r2,r2,#9
        0x00001082:    1889        ..      ADDS     r1,r1,r2
        0x00001084:    1808        ..      ADDS     r0,r1,r0
        0x00001086:    f7fffa95    ....    BL       FMC_Read ; 0x5b4
        0x0000108a:    0421        !.      LSLS     r1,r4,#16
        0x0000108c:    062a        *.      LSLS     r2,r5,#24
        0x0000108e:    b280        ..      UXTH     r0,r0
        0x00001090:    4311        .C      ORRS     r1,r1,r2
        0x00001092:    4301        .C      ORRS     r1,r1,r0
        0x00001094:    6978        xi      LDR      r0,[r7,#0x14]
        0x00001096:    6832        2h      LDR      r2,[r6,#0]
        0x00001098:    0252        R.      LSLS     r2,r2,#9
        0x0000109a:    1882        ..      ADDS     r2,r0,r2
        0x0000109c:    68f0        .h      LDR      r0,[r6,#0xc]
        0x0000109e:    1e80        ..      SUBS     r0,r0,#2
        0x000010a0:    1810        ..      ADDS     r0,r2,r0
        0x000010a2:    f7fffab3    ....    BL       FMC_Write ; 0x60c
        0x000010a6:    6930        0i      LDR      r0,[r6,#0x10]
        0x000010a8:    5505        .U      STRB     r5,[r0,r4]
        0x000010aa:    68f0        .h      LDR      r0,[r6,#0xc]
        0x000010ac:    1fc1        ..      SUBS     r1,r0,#7
        0x000010ae:    39ff        .9      SUBS     r1,r1,#0xff
        0x000010b0:    39f8        .9      SUBS     r1,r1,#0xf8
        0x000010b2:    d003        ..      BEQ      0x10bc ; Write_Data + 104
        0x000010b4:    1c80        ..      ADDS     r0,r0,#2
        0x000010b6:    60f0        .`      STR      r0,[r6,#0xc]
        0x000010b8:    2000        .       MOVS     r0,#0
        0x000010ba:    bdf8        ..      POP      {r3-r7,pc}
        0x000010bc:    f7fffb88    ....    BL       Manage_Next_Page ; 0x7d0
        0x000010c0:    e7fa        ..      B        0x10b8 ; Write_Data + 100
        0x000010c2:    2201        ."      MOVS     r2,#1
        0x000010c4:    0229        ).      LSLS     r1,r5,#8
        0x000010c6:    0412        ..      LSLS     r2,r2,#16
        0x000010c8:    1aa2        ..      SUBS     r2,r4,r2
        0x000010ca:    4311        .C      ORRS     r1,r1,r2
        0x000010cc:    697a        zi      LDR      r2,[r7,#0x14]
        0x000010ce:    6833        3h      LDR      r3,[r6,#0]
        0x000010d0:    025b        [.      LSLS     r3,r3,#9
        0x000010d2:    1818        ..      ADDS     r0,r3,r0
        0x000010d4:    e7e4        ..      B        0x10a0 ; Write_Data + 76
    $d
        0x000010d6:    0000        ..      DCW    0
        0x000010d8:    20000020     ..     DCD    536870944
        0x000010dc:    4000c000    ...@    DCD    1073790976
    $t
    i.__0printf$8
    __0printf$8
    __1printf$8
    __2printf
        0x000010e0:    b40f        ..      PUSH     {r0-r3}
        0x000010e2:    b510        ..      PUSH     {r4,lr}
        0x000010e4:    a903        ..      ADD      r1,sp,#0xc
        0x000010e6:    4b04        .K      LDR      r3,[pc,#16] ; [0x10f8] = 0x1595
        0x000010e8:    4a04        .J      LDR      r2,[pc,#16] ; [0x10fc] = 0x2000000c
        0x000010ea:    9802        ..      LDR      r0,[sp,#8]
        0x000010ec:    f000f818    ....    BL       _printf_core ; 0x1120
        0x000010f0:    bc10        ..      POP      {r4}
        0x000010f2:    bc08        ..      POP      {r3}
        0x000010f4:    b004        ..      ADD      sp,sp,#0x10
        0x000010f6:    4718        .G      BX       r3
    $d
        0x000010f8:    00001595    ....    DCD    5525
        0x000010fc:    2000000c    ...     DCD    536870924
    $t
    i.__scatterload_copy
    __scatterload_copy
        0x00001100:    e002        ..      B        0x1108 ; __scatterload_copy + 8
        0x00001102:    c808        ..      LDM      r0!,{r3}
        0x00001104:    1f12        ..      SUBS     r2,r2,#4
        0x00001106:    c108        ..      STM      r1!,{r3}
        0x00001108:    2a00        .*      CMP      r2,#0
        0x0000110a:    d1fa        ..      BNE      0x1102 ; __scatterload_copy + 2
        0x0000110c:    4770        pG      BX       lr
    i.__scatterload_null
    __scatterload_null
        0x0000110e:    4770        pG      BX       lr
    i.__scatterload_zeroinit
    __scatterload_zeroinit
        0x00001110:    2000        .       MOVS     r0,#0
        0x00001112:    e001        ..      B        0x1118 ; __scatterload_zeroinit + 8
        0x00001114:    c101        ..      STM      r1!,{r0}
        0x00001116:    1f12        ..      SUBS     r2,r2,#4
        0x00001118:    2a00        .*      CMP      r2,#0
        0x0000111a:    d1fb        ..      BNE      0x1114 ; __scatterload_zeroinit + 4
        0x0000111c:    4770        pG      BX       lr
        0x0000111e:    0000        ..      MOVS     r0,r0
    i._printf_core
    _printf_core
        0x00001120:    b5ff        ..      PUSH     {r0-r7,lr}
        0x00001122:    b091        ..      SUB      sp,sp,#0x44
        0x00001124:    460f        .F      MOV      r7,r1
        0x00001126:    4605        .F      MOV      r5,r0
        0x00001128:    2600        .&      MOVS     r6,#0
        0x0000112a:    e006        ..      B        0x113a ; _printf_core + 26
        0x0000112c:    2825        %(      CMP      r0,#0x25
        0x0000112e:    d00a        ..      BEQ      0x1146 ; _printf_core + 38
        0x00001130:    9a14        ..      LDR      r2,[sp,#0x50]
        0x00001132:    9913        ..      LDR      r1,[sp,#0x4c]
        0x00001134:    4790        .G      BLX      r2
        0x00001136:    1c6d        m.      ADDS     r5,r5,#1
        0x00001138:    1c76        v.      ADDS     r6,r6,#1
        0x0000113a:    7828        (x      LDRB     r0,[r5,#0]
        0x0000113c:    2800        .(      CMP      r0,#0
        0x0000113e:    d1f5        ..      BNE      0x112c ; _printf_core + 12
        0x00001140:    4630        0F      MOV      r0,r6
        0x00001142:    b015        ..      ADD      sp,sp,#0x54
        0x00001144:    bdf0        ..      POP      {r4-r7,pc}
        0x00001146:    2400        .$      MOVS     r4,#0
        0x00001148:    9400        ..      STR      r4,[sp,#0]
        0x0000114a:    2101        .!      MOVS     r1,#1
        0x0000114c:    4af3        .J      LDR      r2,[pc,#972] ; [0x151c] = 0x12809
        0x0000114e:    9402        ..      STR      r4,[sp,#8]
        0x00001150:    e000        ..      B        0x1154 ; _printf_core + 52
        0x00001152:    4304        .C      ORRS     r4,r4,r0
        0x00001154:    1c6d        m.      ADDS     r5,r5,#1
        0x00001156:    782b        +x      LDRB     r3,[r5,#0]
        0x00001158:    4608        .F      MOV      r0,r1
        0x0000115a:    3b20         ;      SUBS     r3,r3,#0x20
        0x0000115c:    4098        .@      LSLS     r0,r0,r3
        0x0000115e:    4210        .B      TST      r0,r2
        0x00001160:    d1f7        ..      BNE      0x1152 ; _printf_core + 50
        0x00001162:    7828        (x      LDRB     r0,[r5,#0]
        0x00001164:    282a        *(      CMP      r0,#0x2a
        0x00001166:    d00e        ..      BEQ      0x1186 ; _printf_core + 102
        0x00001168:    2102        .!      MOVS     r1,#2
        0x0000116a:    7828        (x      LDRB     r0,[r5,#0]
        0x0000116c:    4602        .F      MOV      r2,r0
        0x0000116e:    3a30        0:      SUBS     r2,r2,#0x30
        0x00001170:    2a09        .*      CMP      r2,#9
        0x00001172:    d815        ..      BHI      0x11a0 ; _printf_core + 128
        0x00001174:    9a00        ..      LDR      r2,[sp,#0]
        0x00001176:    230a        .#      MOVS     r3,#0xa
        0x00001178:    435a        ZC      MULS     r2,r3,r2
        0x0000117a:    3a30        0:      SUBS     r2,r2,#0x30
        0x0000117c:    1880        ..      ADDS     r0,r0,r2
        0x0000117e:    430c        .C      ORRS     r4,r4,r1
        0x00001180:    1c6d        m.      ADDS     r5,r5,#1
        0x00001182:    9000        ..      STR      r0,[sp,#0]
        0x00001184:    e7f1        ..      B        0x116a ; _printf_core + 74
        0x00001186:    cf01        ..      LDM      r7!,{r0}
        0x00001188:    9000        ..      STR      r0,[sp,#0]
        0x0000118a:    2800        .(      CMP      r0,#0
        0x0000118c:    da05        ..      BGE      0x119a ; _printf_core + 122
        0x0000118e:    2001        .       MOVS     r0,#1
        0x00001190:    0340        @.      LSLS     r0,r0,#13
        0x00001192:    4304        .C      ORRS     r4,r4,r0
        0x00001194:    9800        ..      LDR      r0,[sp,#0]
        0x00001196:    4240        @B      RSBS     r0,r0,#0
        0x00001198:    9000        ..      STR      r0,[sp,#0]
        0x0000119a:    2002        .       MOVS     r0,#2
        0x0000119c:    4304        .C      ORRS     r4,r4,r0
        0x0000119e:    1c6d        m.      ADDS     r5,r5,#1
        0x000011a0:    7828        (x      LDRB     r0,[r5,#0]
        0x000011a2:    282e        .(      CMP      r0,#0x2e
        0x000011a4:    d115        ..      BNE      0x11d2 ; _printf_core + 178
        0x000011a6:    2004        .       MOVS     r0,#4
        0x000011a8:    4304        .C      ORRS     r4,r4,r0
        0x000011aa:    7868        hx      LDRB     r0,[r5,#1]
        0x000011ac:    1c6d        m.      ADDS     r5,r5,#1
        0x000011ae:    282a        *(      CMP      r0,#0x2a
        0x000011b0:    d10a        ..      BNE      0x11c8 ; _printf_core + 168
        0x000011b2:    cf01        ..      LDM      r7!,{r0}
        0x000011b4:    1c6d        m.      ADDS     r5,r5,#1
        0x000011b6:    9002        ..      STR      r0,[sp,#8]
        0x000011b8:    e00b        ..      B        0x11d2 ; _printf_core + 178
        0x000011ba:    9902        ..      LDR      r1,[sp,#8]
        0x000011bc:    220a        ."      MOVS     r2,#0xa
        0x000011be:    4351        QC      MULS     r1,r2,r1
        0x000011c0:    3930        09      SUBS     r1,r1,#0x30
        0x000011c2:    1840        @.      ADDS     r0,r0,r1
        0x000011c4:    1c6d        m.      ADDS     r5,r5,#1
        0x000011c6:    9002        ..      STR      r0,[sp,#8]
        0x000011c8:    7828        (x      LDRB     r0,[r5,#0]
        0x000011ca:    4601        .F      MOV      r1,r0
        0x000011cc:    3930        09      SUBS     r1,r1,#0x30
        0x000011ce:    2909        .)      CMP      r1,#9
        0x000011d0:    d9f3        ..      BLS      0x11ba ; _printf_core + 154
        0x000011d2:    7828        (x      LDRB     r0,[r5,#0]
        0x000011d4:    286c        l(      CMP      r0,#0x6c
        0x000011d6:    d010        ..      BEQ      0x11fa ; _printf_core + 218
        0x000011d8:    dc06        ..      BGT      0x11e8 ; _printf_core + 200
        0x000011da:    284c        L(      CMP      r0,#0x4c
        0x000011dc:    d01a        ..      BEQ      0x1214 ; _printf_core + 244
        0x000011de:    2868        h(      CMP      r0,#0x68
        0x000011e0:    d00e        ..      BEQ      0x1200 ; _printf_core + 224
        0x000011e2:    286a        j(      CMP      r0,#0x6a
        0x000011e4:    d117        ..      BNE      0x1216 ; _printf_core + 246
        0x000011e6:    e004        ..      B        0x11f2 ; _printf_core + 210
        0x000011e8:    2874        t(      CMP      r0,#0x74
        0x000011ea:    d013        ..      BEQ      0x1214 ; _printf_core + 244
        0x000011ec:    287a        z(      CMP      r0,#0x7a
        0x000011ee:    d112        ..      BNE      0x1216 ; _printf_core + 246
        0x000011f0:    e010        ..      B        0x1214 ; _printf_core + 244
        0x000011f2:    2001        .       MOVS     r0,#1
        0x000011f4:    0540        @.      LSLS     r0,r0,#21
        0x000011f6:    4304        .C      ORRS     r4,r4,r0
        0x000011f8:    e00c        ..      B        0x1214 ; _printf_core + 244
        0x000011fa:    2101        .!      MOVS     r1,#1
        0x000011fc:    0509        ..      LSLS     r1,r1,#20
        0x000011fe:    e001        ..      B        0x1204 ; _printf_core + 228
        0x00001200:    2103        .!      MOVS     r1,#3
        0x00001202:    0509        ..      LSLS     r1,r1,#20
        0x00001204:    430c        .C      ORRS     r4,r4,r1
        0x00001206:    7869        ix      LDRB     r1,[r5,#1]
        0x00001208:    4281        .B      CMP      r1,r0
        0x0000120a:    d103        ..      BNE      0x1214 ; _printf_core + 244
        0x0000120c:    2001        .       MOVS     r0,#1
        0x0000120e:    0500        ..      LSLS     r0,r0,#20
        0x00001210:    1824        $.      ADDS     r4,r4,r0
        0x00001212:    1c6d        m.      ADDS     r5,r5,#1
        0x00001214:    1c6d        m.      ADDS     r5,r5,#1
        0x00001216:    7828        (x      LDRB     r0,[r5,#0]
        0x00001218:    9003        ..      STR      r0,[sp,#0xc]
        0x0000121a:    286e        n(      CMP      r0,#0x6e
        0x0000121c:    d01e        ..      BEQ      0x125c ; _printf_core + 316
        0x0000121e:    dc0c        ..      BGT      0x123a ; _printf_core + 282
        0x00001220:    2863        c(      CMP      r0,#0x63
        0x00001222:    d031        1.      BEQ      0x1288 ; _printf_core + 360
        0x00001224:    dc04        ..      BGT      0x1230 ; _printf_core + 272
        0x00001226:    2800        .(      CMP      r0,#0
        0x00001228:    d08a        ..      BEQ      0x1140 ; _printf_core + 32
        0x0000122a:    2858        X(      CMP      r0,#0x58
        0x0000122c:    d111        ..      BNE      0x1252 ; _printf_core + 306
        0x0000122e:    e0b2        ..      B        0x1396 ; _printf_core + 630
        0x00001230:    2864        d(      CMP      r0,#0x64
        0x00001232:    d07b        {.      BEQ      0x132c ; _printf_core + 524
        0x00001234:    2869        i(      CMP      r0,#0x69
        0x00001236:    d10c        ..      BNE      0x1252 ; _printf_core + 306
        0x00001238:    e078        x.      B        0x132c ; _printf_core + 524
        0x0000123a:    2873        s(      CMP      r0,#0x73
        0x0000123c:    d02d        -.      BEQ      0x129a ; _printf_core + 378
        0x0000123e:    dc04        ..      BGT      0x124a ; _printf_core + 298
        0x00001240:    286f        o(      CMP      r0,#0x6f
        0x00001242:    d070        p.      BEQ      0x1326 ; _printf_core + 518
        0x00001244:    2870        p(      CMP      r0,#0x70
        0x00001246:    d104        ..      BNE      0x1252 ; _printf_core + 306
        0x00001248:    e0a7        ..      B        0x139a ; _printf_core + 634
        0x0000124a:    2875        u(      CMP      r0,#0x75
        0x0000124c:    d06c        l.      BEQ      0x1328 ; _printf_core + 520
        0x0000124e:    2878        x(      CMP      r0,#0x78
        0x00001250:    d06b        k.      BEQ      0x132a ; _printf_core + 522
        0x00001252:    9a14        ..      LDR      r2,[sp,#0x50]
        0x00001254:    9913        ..      LDR      r1,[sp,#0x4c]
        0x00001256:    4790        .G      BLX      r2
        0x00001258:    1c76        v.      ADDS     r6,r6,#1
        0x0000125a:    e062        b.      B        0x1322 ; _printf_core + 514
        0x0000125c:    0260        `.      LSLS     r0,r4,#9
        0x0000125e:    0f40        @.      LSRS     r0,r0,#29
        0x00001260:    2802        .(      CMP      r0,#2
        0x00001262:    d007        ..      BEQ      0x1274 ; _printf_core + 340
        0x00001264:    2803        .(      CMP      r0,#3
        0x00001266:    d00a        ..      BEQ      0x127e ; _printf_core + 350
        0x00001268:    2804        .(      CMP      r0,#4
        0x0000126a:    6838        8h      LDR      r0,[r7,#0]
        0x0000126c:    d00a        ..      BEQ      0x1284 ; _printf_core + 356
        0x0000126e:    6006        .`      STR      r6,[r0,#0]
        0x00001270:    1d3f        ?.      ADDS     r7,r7,#4
        0x00001272:    e056        V.      B        0x1322 ; _printf_core + 514
        0x00001274:    6838        8h      LDR      r0,[r7,#0]
        0x00001276:    17f1        ..      ASRS     r1,r6,#31
        0x00001278:    6006        .`      STR      r6,[r0,#0]
        0x0000127a:    6041        A`      STR      r1,[r0,#4]
        0x0000127c:    e7f8        ..      B        0x1270 ; _printf_core + 336
        0x0000127e:    6838        8h      LDR      r0,[r7,#0]
        0x00001280:    8006        ..      STRH     r6,[r0,#0]
        0x00001282:    e7f5        ..      B        0x1270 ; _printf_core + 336
        0x00001284:    7006        .p      STRB     r6,[r0,#0]
        0x00001286:    e7f3        ..      B        0x1270 ; _printf_core + 336
        0x00001288:    7838        8x      LDRB     r0,[r7,#0]
        0x0000128a:    4669        iF      MOV      r1,sp
        0x0000128c:    7408        .t      STRB     r0,[r1,#0x10]
        0x0000128e:    2000        .       MOVS     r0,#0
        0x00001290:    7448        Ht      STRB     r0,[r1,#0x11]
        0x00001292:    a804        ..      ADD      r0,sp,#0x10
        0x00001294:    9003        ..      STR      r0,[sp,#0xc]
        0x00001296:    2001        .       MOVS     r0,#1
        0x00001298:    e003        ..      B        0x12a2 ; _printf_core + 386
        0x0000129a:    6838        8h      LDR      r0,[r7,#0]
        0x0000129c:    9003        ..      STR      r0,[sp,#0xc]
        0x0000129e:    2000        .       MOVS     r0,#0
        0x000012a0:    43c0        .C      MVNS     r0,r0
        0x000012a2:    1d3f        ?.      ADDS     r7,r7,#4
        0x000012a4:    0761        a.      LSLS     r1,r4,#29
        0x000012a6:    d50f        ..      BPL      0x12c8 ; _printf_core + 424
        0x000012a8:    2100        .!      MOVS     r1,#0
        0x000012aa:    e001        ..      B        0x12b0 ; _printf_core + 400
        0x000012ac:    9901        ..      LDR      r1,[sp,#4]
        0x000012ae:    1c49        I.      ADDS     r1,r1,#1
        0x000012b0:    9a02        ..      LDR      r2,[sp,#8]
        0x000012b2:    9101        ..      STR      r1,[sp,#4]
        0x000012b4:    4291        .B      CMP      r1,r2
        0x000012b6:    da13        ..      BGE      0x12e0 ; _printf_core + 448
        0x000012b8:    4281        .B      CMP      r1,r0
        0x000012ba:    dbf7        ..      BLT      0x12ac ; _printf_core + 396
        0x000012bc:    9a01        ..      LDR      r2,[sp,#4]
        0x000012be:    9903        ..      LDR      r1,[sp,#0xc]
        0x000012c0:    5c89        .\      LDRB     r1,[r1,r2]
        0x000012c2:    2900        .)      CMP      r1,#0
        0x000012c4:    d1f2        ..      BNE      0x12ac ; _printf_core + 396
        0x000012c6:    e00b        ..      B        0x12e0 ; _printf_core + 448
        0x000012c8:    2100        .!      MOVS     r1,#0
        0x000012ca:    e001        ..      B        0x12d0 ; _printf_core + 432
        0x000012cc:    9901        ..      LDR      r1,[sp,#4]
        0x000012ce:    1c49        I.      ADDS     r1,r1,#1
        0x000012d0:    9101        ..      STR      r1,[sp,#4]
        0x000012d2:    4281        .B      CMP      r1,r0
        0x000012d4:    dbfa        ..      BLT      0x12cc ; _printf_core + 428
        0x000012d6:    9a01        ..      LDR      r2,[sp,#4]
        0x000012d8:    9903        ..      LDR      r1,[sp,#0xc]
        0x000012da:    5c89        .\      LDRB     r1,[r1,r2]
        0x000012dc:    2900        .)      CMP      r1,#0
        0x000012de:    d1f5        ..      BNE      0x12cc ; _printf_core + 428
        0x000012e0:    9901        ..      LDR      r1,[sp,#4]
        0x000012e2:    9800        ..      LDR      r0,[sp,#0]
        0x000012e4:    9a13        ..      LDR      r2,[sp,#0x4c]
        0x000012e6:    1a40        @.      SUBS     r0,r0,r1
        0x000012e8:    9000        ..      STR      r0,[sp,#0]
        0x000012ea:    4621        !F      MOV      r1,r4
        0x000012ec:    9b14        ..      LDR      r3,[sp,#0x50]
        0x000012ee:    f000f93b    ..;.    BL       _printf_pre_padding ; 0x1568
        0x000012f2:    9901        ..      LDR      r1,[sp,#4]
        0x000012f4:    1980        ..      ADDS     r0,r0,r6
        0x000012f6:    1846        F.      ADDS     r6,r0,r1
        0x000012f8:    e007        ..      B        0x130a ; _printf_core + 490
        0x000012fa:    9803        ..      LDR      r0,[sp,#0xc]
        0x000012fc:    9903        ..      LDR      r1,[sp,#0xc]
        0x000012fe:    7800        .x      LDRB     r0,[r0,#0]
        0x00001300:    1c49        I.      ADDS     r1,r1,#1
        0x00001302:    9103        ..      STR      r1,[sp,#0xc]
        0x00001304:    9a14        ..      LDR      r2,[sp,#0x50]
        0x00001306:    9913        ..      LDR      r1,[sp,#0x4c]
        0x00001308:    4790        .G      BLX      r2
        0x0000130a:    9801        ..      LDR      r0,[sp,#4]
        0x0000130c:    1e40        @.      SUBS     r0,r0,#1
        0x0000130e:    9001        ..      STR      r0,[sp,#4]
        0x00001310:    1c40        @.      ADDS     r0,r0,#1
        0x00001312:    d1f2        ..      BNE      0x12fa ; _printf_core + 474
        0x00001314:    4621        !F      MOV      r1,r4
        0x00001316:    9b14        ..      LDR      r3,[sp,#0x50]
        0x00001318:    9a13        ..      LDR      r2,[sp,#0x4c]
        0x0000131a:    9800        ..      LDR      r0,[sp,#0]
        0x0000131c:    f000f914    ....    BL       _printf_post_padding ; 0x1548
        0x00001320:    1986        ..      ADDS     r6,r0,r6
        0x00001322:    1c6d        m.      ADDS     r5,r5,#1
        0x00001324:    e709        ..      B        0x113a ; _printf_core + 26
        0x00001326:    e041        A.      B        0x13ac ; _printf_core + 652
        0x00001328:    e033        3.      B        0x1392 ; _printf_core + 626
        0x0000132a:    e034        4.      B        0x1396 ; _printf_core + 630
        0x0000132c:    200a        .       MOVS     r0,#0xa
        0x0000132e:    2100        .!      MOVS     r1,#0
        0x00001330:    9004        ..      STR      r0,[sp,#0x10]
        0x00001332:    9105        ..      STR      r1,[sp,#0x14]
        0x00001334:    0260        `.      LSLS     r0,r4,#9
        0x00001336:    0f41        A.      LSRS     r1,r0,#29
        0x00001338:    2902        .)      CMP      r1,#2
        0x0000133a:    d005        ..      BEQ      0x1348 ; _printf_core + 552
        0x0000133c:    cf01        ..      LDM      r7!,{r0}
        0x0000133e:    17c2        ..      ASRS     r2,r0,#31
        0x00001340:    4694        .F      MOV      r12,r2
        0x00001342:    2903        .)      CMP      r1,#3
        0x00001344:    d005        ..      BEQ      0x1352 ; _printf_core + 562
        0x00001346:    e007        ..      B        0x1358 ; _printf_core + 568
        0x00001348:    1dff        ..      ADDS     r7,r7,#7
        0x0000134a:    08ff        ..      LSRS     r7,r7,#3
        0x0000134c:    00ff        ..      LSLS     r7,r7,#3
        0x0000134e:    cf03        ..      LDM      r7!,{r0,r1}
        0x00001350:    e006        ..      B        0x1360 ; _printf_core + 576
        0x00001352:    b200        ..      SXTH     r0,r0
        0x00001354:    17c2        ..      ASRS     r2,r0,#31
        0x00001356:    4694        .F      MOV      r12,r2
        0x00001358:    2904        .)      CMP      r1,#4
        0x0000135a:    d102        ..      BNE      0x1362 ; _printf_core + 578
        0x0000135c:    b240        @.      SXTB     r0,r0
        0x0000135e:    17c1        ..      ASRS     r1,r0,#31
        0x00001360:    468c        .F      MOV      r12,r1
        0x00001362:    2200        ."      MOVS     r2,#0
        0x00001364:    4661        aF      MOV      r1,r12
        0x00001366:    4594        .E      CMP      r12,r2
        0x00001368:    da06        ..      BGE      0x1378 ; _printf_core + 600
        0x0000136a:    460a        .F      MOV      r2,r1
        0x0000136c:    2100        .!      MOVS     r1,#0
        0x0000136e:    4240        @B      RSBS     r0,r0,#0
        0x00001370:    4191        .A      SBCS     r1,r1,r2
        0x00001372:    468c        .F      MOV      r12,r1
        0x00001374:    212d        -!      MOVS     r1,#0x2d
        0x00001376:    e002        ..      B        0x137e ; _printf_core + 606
        0x00001378:    0521        !.      LSLS     r1,r4,#20
        0x0000137a:    d504        ..      BPL      0x1386 ; _printf_core + 614
        0x0000137c:    212b        +!      MOVS     r1,#0x2b
        0x0000137e:    466a        jF      MOV      r2,sp
        0x00001380:    7611        .v      STRB     r1,[r2,#0x18]
        0x00001382:    2101        .!      MOVS     r1,#1
        0x00001384:    e003        ..      B        0x138e ; _printf_core + 622
        0x00001386:    07e1        ..      LSLS     r1,r4,#31
        0x00001388:    d001        ..      BEQ      0x138e ; _printf_core + 622
        0x0000138a:    2120         !      MOVS     r1,#0x20
        0x0000138c:    e7f7        ..      B        0x137e ; _printf_core + 606
        0x0000138e:    9101        ..      STR      r1,[sp,#4]
        0x00001390:    e054        T.      B        0x143c ; _printf_core + 796
        0x00001392:    200a        .       MOVS     r0,#0xa
        0x00001394:    e00b        ..      B        0x13ae ; _printf_core + 654
        0x00001396:    2010        .       MOVS     r0,#0x10
        0x00001398:    e009        ..      B        0x13ae ; _printf_core + 654
        0x0000139a:    2010        .       MOVS     r0,#0x10
        0x0000139c:    9004        ..      STR      r0,[sp,#0x10]
        0x0000139e:    2100        .!      MOVS     r1,#0
        0x000013a0:    2004        .       MOVS     r0,#4
        0x000013a2:    4304        .C      ORRS     r4,r4,r0
        0x000013a4:    2008        .       MOVS     r0,#8
        0x000013a6:    9105        ..      STR      r1,[sp,#0x14]
        0x000013a8:    9002        ..      STR      r0,[sp,#8]
        0x000013aa:    e003        ..      B        0x13b4 ; _printf_core + 660
        0x000013ac:    2008        .       MOVS     r0,#8
        0x000013ae:    2100        .!      MOVS     r1,#0
        0x000013b0:    9105        ..      STR      r1,[sp,#0x14]
        0x000013b2:    9004        ..      STR      r0,[sp,#0x10]
        0x000013b4:    0260        `.      LSLS     r0,r4,#9
        0x000013b6:    0f41        A.      LSRS     r1,r0,#29
        0x000013b8:    2902        .)      CMP      r1,#2
        0x000013ba:    d005        ..      BEQ      0x13c8 ; _printf_core + 680
        0x000013bc:    cf01        ..      LDM      r7!,{r0}
        0x000013be:    2200        ."      MOVS     r2,#0
        0x000013c0:    4694        .F      MOV      r12,r2
        0x000013c2:    2903        .)      CMP      r1,#3
        0x000013c4:    d006        ..      BEQ      0x13d4 ; _printf_core + 692
        0x000013c6:    e006        ..      B        0x13d6 ; _printf_core + 694
        0x000013c8:    1dff        ..      ADDS     r7,r7,#7
        0x000013ca:    08ff        ..      LSRS     r7,r7,#3
        0x000013cc:    00ff        ..      LSLS     r7,r7,#3
        0x000013ce:    cf03        ..      LDM      r7!,{r0,r1}
        0x000013d0:    468c        .F      MOV      r12,r1
        0x000013d2:    e003        ..      B        0x13dc ; _printf_core + 700
        0x000013d4:    b280        ..      UXTH     r0,r0
        0x000013d6:    2904        .)      CMP      r1,#4
        0x000013d8:    d100        ..      BNE      0x13dc ; _printf_core + 700
        0x000013da:    b2c0        ..      UXTB     r0,r0
        0x000013dc:    2100        .!      MOVS     r1,#0
        0x000013de:    9101        ..      STR      r1,[sp,#4]
        0x000013e0:    0721        !.      LSLS     r1,r4,#28
        0x000013e2:    d52b        +.      BPL      0x143c ; _printf_core + 796
        0x000013e4:    9903        ..      LDR      r1,[sp,#0xc]
        0x000013e6:    2970        p)      CMP      r1,#0x70
        0x000013e8:    d006        ..      BEQ      0x13f8 ; _printf_core + 728
        0x000013ea:    9a04        ..      LDR      r2,[sp,#0x10]
        0x000013ec:    2110        .!      MOVS     r1,#0x10
        0x000013ee:    9b05        ..      LDR      r3,[sp,#0x14]
        0x000013f0:    404a        J@      EORS     r2,r2,r1
        0x000013f2:    431a        .C      ORRS     r2,r2,r3
        0x000013f4:    d005        ..      BEQ      0x1402 ; _printf_core + 738
        0x000013f6:    e00e        ..      B        0x1416 ; _printf_core + 758
        0x000013f8:    2140        @!      MOVS     r1,#0x40
        0x000013fa:    466a        jF      MOV      r2,sp
        0x000013fc:    7611        .v      STRB     r1,[r2,#0x18]
        0x000013fe:    2101        .!      MOVS     r1,#1
        0x00001400:    e008        ..      B        0x1414 ; _printf_core + 756
        0x00001402:    4661        aF      MOV      r1,r12
        0x00001404:    4301        .C      ORRS     r1,r1,r0
        0x00001406:    d006        ..      BEQ      0x1416 ; _printf_core + 758
        0x00001408:    2130        0!      MOVS     r1,#0x30
        0x0000140a:    466a        jF      MOV      r2,sp
        0x0000140c:    7611        .v      STRB     r1,[r2,#0x18]
        0x0000140e:    9903        ..      LDR      r1,[sp,#0xc]
        0x00001410:    7651        Qv      STRB     r1,[r2,#0x19]
        0x00001412:    2102        .!      MOVS     r1,#2
        0x00001414:    9101        ..      STR      r1,[sp,#4]
        0x00001416:    9a04        ..      LDR      r2,[sp,#0x10]
        0x00001418:    2108        .!      MOVS     r1,#8
        0x0000141a:    9b05        ..      LDR      r3,[sp,#0x14]
        0x0000141c:    404a        J@      EORS     r2,r2,r1
        0x0000141e:    431a        .C      ORRS     r2,r2,r3
        0x00001420:    d10c        ..      BNE      0x143c ; _printf_core + 796
        0x00001422:    4661        aF      MOV      r1,r12
        0x00001424:    4301        .C      ORRS     r1,r1,r0
        0x00001426:    d101        ..      BNE      0x142c ; _printf_core + 780
        0x00001428:    0761        a.      LSLS     r1,r4,#29
        0x0000142a:    d507        ..      BPL      0x143c ; _printf_core + 796
        0x0000142c:    2130        0!      MOVS     r1,#0x30
        0x0000142e:    466a        jF      MOV      r2,sp
        0x00001430:    7611        .v      STRB     r1,[r2,#0x18]
        0x00001432:    2101        .!      MOVS     r1,#1
        0x00001434:    9101        ..      STR      r1,[sp,#4]
        0x00001436:    9902        ..      LDR      r1,[sp,#8]
        0x00001438:    1e49        I.      SUBS     r1,r1,#1
        0x0000143a:    9102        ..      STR      r1,[sp,#8]
        0x0000143c:    9903        ..      LDR      r1,[sp,#0xc]
        0x0000143e:    2958        X)      CMP      r1,#0x58
        0x00001440:    d004        ..      BEQ      0x144c ; _printf_core + 812
        0x00001442:    a137        7.      ADR      r1,{pc}+0xde ; 0x1520
        0x00001444:    9103        ..      STR      r1,[sp,#0xc]
        0x00001446:    a90f        ..      ADD      r1,sp,#0x3c
        0x00001448:    910f        ..      STR      r1,[sp,#0x3c]
        0x0000144a:    e00d        ..      B        0x1468 ; _printf_core + 840
        0x0000144c:    a139        9.      ADR      r1,{pc}+0xe8 ; 0x1534
        0x0000144e:    e7f9        ..      B        0x1444 ; _printf_core + 804
        0x00001450:    4661        aF      MOV      r1,r12
        0x00001452:    9b05        ..      LDR      r3,[sp,#0x14]
        0x00001454:    9a04        ..      LDR      r2,[sp,#0x10]
        0x00001456:    f7fefeb5    ....    BL       __aeabi_uldivmod ; 0x1c4
        0x0000145a:    9b03        ..      LDR      r3,[sp,#0xc]
        0x0000145c:    468c        .F      MOV      r12,r1
        0x0000145e:    5c9b        .\      LDRB     r3,[r3,r2]
        0x00001460:    9a0f        ..      LDR      r2,[sp,#0x3c]
        0x00001462:    1e52        R.      SUBS     r2,r2,#1
        0x00001464:    920f        ..      STR      r2,[sp,#0x3c]
        0x00001466:    7013        .p      STRB     r3,[r2,#0]
        0x00001468:    4661        aF      MOV      r1,r12
        0x0000146a:    4301        .C      ORRS     r1,r1,r0
        0x0000146c:    d1f0        ..      BNE      0x1450 ; _printf_core + 816
        0x0000146e:    980f        ..      LDR      r0,[sp,#0x3c]
        0x00001470:    a907        ..      ADD      r1,sp,#0x1c
        0x00001472:    1a08        ..      SUBS     r0,r1,r0
        0x00001474:    3020         0      ADDS     r0,r0,#0x20
        0x00001476:    9003        ..      STR      r0,[sp,#0xc]
        0x00001478:    0760        `.      LSLS     r0,r4,#29
        0x0000147a:    d504        ..      BPL      0x1486 ; _printf_core + 870
        0x0000147c:    2001        .       MOVS     r0,#1
        0x0000147e:    0400        ..      LSLS     r0,r0,#16
        0x00001480:    4384        .C      BICS     r4,r4,r0
        0x00001482:    9802        ..      LDR      r0,[sp,#8]
        0x00001484:    e001        ..      B        0x148a ; _printf_core + 874
        0x00001486:    2001        .       MOVS     r0,#1
        0x00001488:    9002        ..      STR      r0,[sp,#8]
        0x0000148a:    9903        ..      LDR      r1,[sp,#0xc]
        0x0000148c:    4288        .B      CMP      r0,r1
        0x0000148e:    dd01        ..      BLE      0x1494 ; _printf_core + 884
        0x00001490:    1a40        @.      SUBS     r0,r0,r1
        0x00001492:    e000        ..      B        0x1496 ; _printf_core + 886
        0x00001494:    2000        .       MOVS     r0,#0
        0x00001496:    1841        A.      ADDS     r1,r0,r1
        0x00001498:    9002        ..      STR      r0,[sp,#8]
        0x0000149a:    9801        ..      LDR      r0,[sp,#4]
        0x0000149c:    1809        ..      ADDS     r1,r1,r0
        0x0000149e:    9800        ..      LDR      r0,[sp,#0]
        0x000014a0:    1a40        @.      SUBS     r0,r0,r1
        0x000014a2:    9000        ..      STR      r0,[sp,#0]
        0x000014a4:    03e0        ..      LSLS     r0,r4,#15
        0x000014a6:    d406        ..      BMI      0x14b6 ; _printf_core + 918
        0x000014a8:    4621        !F      MOV      r1,r4
        0x000014aa:    9b14        ..      LDR      r3,[sp,#0x50]
        0x000014ac:    9a13        ..      LDR      r2,[sp,#0x4c]
        0x000014ae:    9800        ..      LDR      r0,[sp,#0]
        0x000014b0:    f000f85a    ..Z.    BL       _printf_pre_padding ; 0x1568
        0x000014b4:    1986        ..      ADDS     r6,r0,r6
        0x000014b6:    2000        .       MOVS     r0,#0
        0x000014b8:    9004        ..      STR      r0,[sp,#0x10]
        0x000014ba:    e008        ..      B        0x14ce ; _printf_core + 942
        0x000014bc:    a906        ..      ADD      r1,sp,#0x18
        0x000014be:    5c08        .\      LDRB     r0,[r1,r0]
        0x000014c0:    9a14        ..      LDR      r2,[sp,#0x50]
        0x000014c2:    9913        ..      LDR      r1,[sp,#0x4c]
        0x000014c4:    4790        .G      BLX      r2
        0x000014c6:    9804        ..      LDR      r0,[sp,#0x10]
        0x000014c8:    1c40        @.      ADDS     r0,r0,#1
        0x000014ca:    1c76        v.      ADDS     r6,r6,#1
        0x000014cc:    9004        ..      STR      r0,[sp,#0x10]
        0x000014ce:    9901        ..      LDR      r1,[sp,#4]
        0x000014d0:    4288        .B      CMP      r0,r1
        0x000014d2:    dbf3        ..      BLT      0x14bc ; _printf_core + 924
        0x000014d4:    03e0        ..      LSLS     r0,r4,#15
        0x000014d6:    d50c        ..      BPL      0x14f2 ; _printf_core + 978
        0x000014d8:    4621        !F      MOV      r1,r4
        0x000014da:    9b14        ..      LDR      r3,[sp,#0x50]
        0x000014dc:    9a13        ..      LDR      r2,[sp,#0x4c]
        0x000014de:    9800        ..      LDR      r0,[sp,#0]
        0x000014e0:    f000f842    ..B.    BL       _printf_pre_padding ; 0x1568
        0x000014e4:    1986        ..      ADDS     r6,r0,r6
        0x000014e6:    e004        ..      B        0x14f2 ; _printf_core + 978
        0x000014e8:    9a14        ..      LDR      r2,[sp,#0x50]
        0x000014ea:    2030        0       MOVS     r0,#0x30
        0x000014ec:    9913        ..      LDR      r1,[sp,#0x4c]
        0x000014ee:    4790        .G      BLX      r2
        0x000014f0:    1c76        v.      ADDS     r6,r6,#1
        0x000014f2:    9902        ..      LDR      r1,[sp,#8]
        0x000014f4:    1e48        H.      SUBS     r0,r1,#1
        0x000014f6:    9002        ..      STR      r0,[sp,#8]
        0x000014f8:    2900        .)      CMP      r1,#0
        0x000014fa:    dcf5        ..      BGT      0x14e8 ; _printf_core + 968
        0x000014fc:    e008        ..      B        0x1510 ; _printf_core + 1008
        0x000014fe:    980f        ..      LDR      r0,[sp,#0x3c]
        0x00001500:    990f        ..      LDR      r1,[sp,#0x3c]
        0x00001502:    7800        .x      LDRB     r0,[r0,#0]
        0x00001504:    1c49        I.      ADDS     r1,r1,#1
        0x00001506:    910f        ..      STR      r1,[sp,#0x3c]
        0x00001508:    9a14        ..      LDR      r2,[sp,#0x50]
        0x0000150a:    9913        ..      LDR      r1,[sp,#0x4c]
        0x0000150c:    4790        .G      BLX      r2
        0x0000150e:    1c76        v.      ADDS     r6,r6,#1
        0x00001510:    9903        ..      LDR      r1,[sp,#0xc]
        0x00001512:    1e48        H.      SUBS     r0,r1,#1
        0x00001514:    9003        ..      STR      r0,[sp,#0xc]
        0x00001516:    2900        .)      CMP      r1,#0
        0x00001518:    dcf1        ..      BGT      0x14fe ; _printf_core + 990
        0x0000151a:    e6fb        ..      B        0x1314 ; _printf_core + 500
    $d
        0x0000151c:    00012809    .(..    DCD    75785
        0x00001520:    33323130    0123    DCD    858927408
        0x00001524:    37363534    4567    DCD    926299444
        0x00001528:    62613938    89ab    DCD    1650538808
        0x0000152c:    66656463    cdef    DCD    1717920867
        0x00001530:    00000000    ....    DCD    0
        0x00001534:    33323130    0123    DCD    858927408
        0x00001538:    37363534    4567    DCD    926299444
        0x0000153c:    42413938    89AB    DCD    1111570744
        0x00001540:    46454443    CDEF    DCD    1178944579
        0x00001544:    00000000    ....    DCD    0
    $t
    i._printf_post_padding
    _printf_post_padding
        0x00001548:    b5f8        ..      PUSH     {r3-r7,lr}
        0x0000154a:    4604        .F      MOV      r4,r0
        0x0000154c:    2500        .%      MOVS     r5,#0
        0x0000154e:    461e        .F      MOV      r6,r3
        0x00001550:    4617        .F      MOV      r7,r2
        0x00001552:    0488        ..      LSLS     r0,r1,#18
        0x00001554:    d404        ..      BMI      0x1560 ; _printf_post_padding + 24
        0x00001556:    e005        ..      B        0x1564 ; _printf_post_padding + 28
        0x00001558:    4639        9F      MOV      r1,r7
        0x0000155a:    2020                MOVS     r0,#0x20
        0x0000155c:    47b0        .G      BLX      r6
        0x0000155e:    1c6d        m.      ADDS     r5,r5,#1
        0x00001560:    1e64        d.      SUBS     r4,r4,#1
        0x00001562:    d5f9        ..      BPL      0x1558 ; _printf_post_padding + 16
        0x00001564:    4628        (F      MOV      r0,r5
        0x00001566:    bdf8        ..      POP      {r3-r7,pc}
    i._printf_pre_padding
    _printf_pre_padding
        0x00001568:    b5ff        ..      PUSH     {r0-r7,lr}
        0x0000156a:    4604        .F      MOV      r4,r0
        0x0000156c:    2500        .%      MOVS     r5,#0
        0x0000156e:    b081        ..      SUB      sp,sp,#4
        0x00001570:    461e        .F      MOV      r6,r3
        0x00001572:    03c8        ..      LSLS     r0,r1,#15
        0x00001574:    d501        ..      BPL      0x157a ; _printf_pre_padding + 18
        0x00001576:    2730        0'      MOVS     r7,#0x30
        0x00001578:    e000        ..      B        0x157c ; _printf_pre_padding + 20
        0x0000157a:    2720         '      MOVS     r7,#0x20
        0x0000157c:    0488        ..      LSLS     r0,r1,#18
        0x0000157e:    d504        ..      BPL      0x158a ; _printf_pre_padding + 34
        0x00001580:    e005        ..      B        0x158e ; _printf_pre_padding + 38
        0x00001582:    4638        8F      MOV      r0,r7
        0x00001584:    9903        ..      LDR      r1,[sp,#0xc]
        0x00001586:    47b0        .G      BLX      r6
        0x00001588:    1c6d        m.      ADDS     r5,r5,#1
        0x0000158a:    1e64        d.      SUBS     r4,r4,#1
        0x0000158c:    d5f9        ..      BPL      0x1582 ; _printf_pre_padding + 26
        0x0000158e:    4628        (F      MOV      r0,r5
        0x00001590:    b005        ..      ADD      sp,sp,#0x14
        0x00001592:    bdf0        ..      POP      {r4-r7,pc}
    i.fputc
    fputc
        0x00001594:    b510        ..      PUSH     {r4,lr}
        0x00001596:    4604        .F      MOV      r4,r0
        0x00001598:    f7fffaa0    ....    BL       SendChar ; 0xadc
        0x0000159c:    4620         F      MOV      r0,r4
        0x0000159e:    bd10        ..      POP      {r4,pc}
    i.isLeapYear
    isLeapYear
        0x000015a0:    b510        ..      PUSH     {r4,lr}
        0x000015a2:    21ff        .!      MOVS     r1,#0xff
        0x000015a4:    4604        .F      MOV      r4,r0
        0x000015a6:    3191        .1      ADDS     r1,r1,#0x91
        0x000015a8:    f7fefde6    ....    BL       __aeabi_idiv ; 0x178
        0x000015ac:    2900        .)      CMP      r1,#0
        0x000015ae:    d007        ..      BEQ      0x15c0 ; isLeapYear + 32
        0x000015b0:    07a1        ..      LSLS     r1,r4,#30
        0x000015b2:    d107        ..      BNE      0x15c4 ; isLeapYear + 36
        0x000015b4:    2164        d!      MOVS     r1,#0x64
        0x000015b6:    4620         F      MOV      r0,r4
        0x000015b8:    f7fefdde    ....    BL       __aeabi_idiv ; 0x178
        0x000015bc:    2900        .)      CMP      r1,#0
        0x000015be:    d001        ..      BEQ      0x15c4 ; isLeapYear + 36
        0x000015c0:    2001        .       MOVS     r0,#1
        0x000015c2:    bd10        ..      POP      {r4,pc}
        0x000015c4:    2000        .       MOVS     r0,#0
        0x000015c6:    bd10        ..      POP      {r4,pc}
    i.loop_1ms
    loop_1ms
        0x000015c8:    490a        .I      LDR      r1,[pc,#40] ; [0x15f4] = 0x20000010
        0x000015ca:    7808        .x      LDRB     r0,[r1,#0]
        0x000015cc:    07c2        ..      LSLS     r2,r0,#31
        0x000015ce:    d00f        ..      BEQ      0x15f0 ; loop_1ms + 40
        0x000015d0:    0840        @.      LSRS     r0,r0,#1
        0x000015d2:    0040        @.      LSLS     r0,r0,#1
        0x000015d4:    7008        .p      STRB     r0,[r1,#0]
        0x000015d6:    8948        H.      LDRH     r0,[r1,#0xa]
        0x000015d8:    1c42        B.      ADDS     r2,r0,#1
        0x000015da:    814a        J.      STRH     r2,[r1,#0xa]
        0x000015dc:    227d        }"      MOVS     r2,#0x7d
        0x000015de:    00d2        ..      LSLS     r2,r2,#3
        0x000015e0:    4290        .B      CMP      r0,r2
        0x000015e2:    d105        ..      BNE      0x15f0 ; loop_1ms + 40
        0x000015e4:    2001        .       MOVS     r0,#1
        0x000015e6:    8148        H.      STRH     r0,[r1,#0xa]
        0x000015e8:    4903        .I      LDR      r1,[pc,#12] ; [0x15f8] = 0x40004840
        0x000015ea:    6b8a        .k      LDR      r2,[r1,#0x38]
        0x000015ec:    4042        B@      EORS     r2,r2,r0
        0x000015ee:    638a        .c      STR      r2,[r1,#0x38]
        0x000015f0:    4770        pG      BX       lr
    $d
        0x000015f2:    0000        ..      DCW    0
        0x000015f4:    20000010    ...     DCD    536870928
        0x000015f8:    40004840    @H.@    DCD    1073760320
    $t
    i.main
    main
        0x000015fc:    f7fff96e    ..n.    BL       SYS_Init ; 0x8dc
        0x00001600:    f7fffc24    ..$.    BL       UART0_Init ; 0xe4c
        0x00001604:    f7fff82e    ....    BL       GPIO_Init ; 0x664
        0x00001608:    f7fffb6c    ..l.    BL       TIMER2_Init ; 0xce4
        0x0000160c:    f7fffb82    ....    BL       TIMER3_Init ; 0xd14
        0x00001610:    f7feff3c    ..<.    BL       Emulate_EEPROM ; 0x48c
        0x00001614:    f7fff844    ..D.    BL       GetDateTimeFromFlash ; 0x6a0
        0x00001618:    f7fff94e    ..N.    BL       RTC_Process ; 0x8b8
        0x0000161c:    f7fff9bc    ....    BL       SaveDateTimeToFlash ; 0x998
        0x00001620:    e7fa        ..      B        0x1618 ; main + 28
        0x00001622:    0000        ..      MOVS     r0,r0
    i.malloc
    malloc
        0x00001624:    b5f0        ..      PUSH     {r4-r7,lr}
        0x00001626:    300b        .0      ADDS     r0,r0,#0xb
        0x00001628:    08c1        ..      LSRS     r1,r0,#3
        0x0000162a:    00c9        ..      LSLS     r1,r1,#3
        0x0000162c:    4f14        .O      LDR      r7,[pc,#80] ; [0x1680] = 0x20000038
        0x0000162e:    2600        .&      MOVS     r6,#0
        0x00001630:    4a14        .J      LDR      r2,[pc,#80] ; [0x1684] = 0x20000034
        0x00001632:    e00f        ..      B        0x1654 ; malloc + 48
        0x00001634:    6803        .h      LDR      r3,[r0,#0]
        0x00001636:    428b        .B      CMP      r3,r1
        0x00001638:    d30b        ..      BCC      0x1652 ; malloc + 46
        0x0000163a:    428b        .B      CMP      r3,r1
        0x0000163c:    d905        ..      BLS      0x164a ; malloc + 38
        0x0000163e:    1a5c        \.      SUBS     r4,r3,r1
        0x00001640:    1843        C.      ADDS     r3,r0,r1
        0x00001642:    6845        Eh      LDR      r5,[r0,#4]
        0x00001644:    c330        0.      STM      r3!,{r4,r5}
        0x00001646:    3b08        .;      SUBS     r3,r3,#8
        0x00001648:    e000        ..      B        0x164c ; malloc + 40
        0x0000164a:    6843        Ch      LDR      r3,[r0,#4]
        0x0000164c:    6013        .`      STR      r3,[r2,#0]
        0x0000164e:    c002        ..      STM      r0!,{r1}
        0x00001650:    e004        ..      B        0x165c ; malloc + 56
        0x00001652:    1d02        ..      ADDS     r2,r0,#4
        0x00001654:    6810        .h      LDR      r0,[r2,#0]
        0x00001656:    2800        .(      CMP      r0,#0
        0x00001658:    d1ec        ..      BNE      0x1634 ; malloc + 16
        0x0000165a:    4630        0F      MOV      r0,r6
        0x0000165c:    2800        .(      CMP      r0,#0
        0x0000165e:    d103        ..      BNE      0x1668 ; malloc + 68
        0x00001660:    6838        8h      LDR      r0,[r7,#0]
        0x00001662:    2800        .(      CMP      r0,#0
        0x00001664:    d001        ..      BEQ      0x166a ; malloc + 70
        0x00001666:    2000        .       MOVS     r0,#0
        0x00001668:    bdf0        ..      POP      {r4-r7,pc}
        0x0000166a:    4a06        .J      LDR      r2,[pc,#24] ; [0x1684] = 0x20000034
        0x0000166c:    4806        .H      LDR      r0,[pc,#24] ; [0x1688] = 0x20000044
        0x0000166e:    6010        .`      STR      r0,[r2,#0]
        0x00001670:    4a06        .J      LDR      r2,[pc,#24] ; [0x168c] = 0x20000040
        0x00001672:    1a12        ..      SUBS     r2,r2,r0
        0x00001674:    08d2        ..      LSRS     r2,r2,#3
        0x00001676:    00d2        ..      LSLS     r2,r2,#3
        0x00001678:    c044        D.      STM      r0!,{r2,r6}
        0x0000167a:    2001        .       MOVS     r0,#1
        0x0000167c:    6038        8`      STR      r0,[r7,#0]
        0x0000167e:    e7d7        ..      B        0x1630 ; malloc + 12
    $d
        0x00001680:    20000038    8..     DCD    536870968
        0x00001684:    20000034    4..     DCD    536870964
        0x00001688:    20000044    D..     DCD    536870980
        0x0000168c:    20000040    @..     DCD    536870976
    $t
    i.set_data_flash_base
    set_data_flash_base
        0x00001690:    b57c        |.      PUSH     {r2-r6,lr}
        0x00001692:    4604        .F      MOV      r4,r0
        0x00001694:    2102        .!      MOVS     r1,#2
        0x00001696:    4668        hF      MOV      r0,sp
        0x00001698:    f7feff9a    ....    BL       FMC_ReadConfig ; 0x5d0
        0x0000169c:    2500        .%      MOVS     r5,#0
        0x0000169e:    43ed        .C      MVNS     r5,r5
        0x000016a0:    2800        .(      CMP      r0,#0
        0x000016a2:    da03        ..      BGE      0x16ac ; set_data_flash_base + 28
        0x000016a4:    a01e        ..      ADR      r0,{pc}+0x7c ; 0x1720
        0x000016a6:    f7fffd1b    ....    BL       __0printf$8 ; 0x10e0
        0x000016aa:    e017        ..      B        0x16dc ; set_data_flash_base + 76
        0x000016ac:    9800        ..      LDR      r0,[sp,#0]
        0x000016ae:    07c0        ..      LSLS     r0,r0,#31
        0x000016b0:    d104        ..      BNE      0x16bc ; set_data_flash_base + 44
        0x000016b2:    9801        ..      LDR      r0,[sp,#4]
        0x000016b4:    42a0        .B      CMP      r0,r4
        0x000016b6:    d101        ..      BNE      0x16bc ; set_data_flash_base + 44
        0x000016b8:    2000        .       MOVS     r0,#0
        0x000016ba:    bd7c        |.      POP      {r2-r6,pc}
        0x000016bc:    481f        .H      LDR      r0,[pc,#124] ; [0x173c] = 0x4000c000
        0x000016be:    6801        .h      LDR      r1,[r0,#0]
        0x000016c0:    2210        ."      MOVS     r2,#0x10
        0x000016c2:    4311        .C      ORRS     r1,r1,r2
        0x000016c4:    6001        .`      STR      r1,[r0,#0]
        0x000016c6:    9800        ..      LDR      r0,[sp,#0]
        0x000016c8:    2102        .!      MOVS     r1,#2
        0x000016ca:    0840        @.      LSRS     r0,r0,#1
        0x000016cc:    0040        @.      LSLS     r0,r0,#1
        0x000016ce:    9000        ..      STR      r0,[sp,#0]
        0x000016d0:    9401        ..      STR      r4,[sp,#4]
        0x000016d2:    4668        hF      MOV      r0,sp
        0x000016d4:    f7feffa8    ....    BL       FMC_WriteConfig ; 0x628
        0x000016d8:    2800        .(      CMP      r0,#0
        0x000016da:    da01        ..      BGE      0x16e0 ; set_data_flash_base + 80
        0x000016dc:    4628        (F      MOV      r0,r5
        0x000016de:    bd7c        |.      POP      {r2-r6,pc}
        0x000016e0:    2102        .!      MOVS     r1,#2
        0x000016e2:    4668        hF      MOV      r0,sp
        0x000016e4:    f7feff74    ..t.    BL       FMC_ReadConfig ; 0x5d0
        0x000016e8:    9800        ..      LDR      r0,[sp,#0]
        0x000016ea:    07c0        ..      LSLS     r0,r0,#31
        0x000016ec:    d102        ..      BNE      0x16f4 ; set_data_flash_base + 100
        0x000016ee:    9801        ..      LDR      r0,[sp,#4]
        0x000016f0:    42a0        .B      CMP      r0,r4
        0x000016f2:    d008        ..      BEQ      0x1706 ; set_data_flash_base + 118
        0x000016f4:    a012        ..      ADR      r0,{pc}+0x4c ; 0x1740
        0x000016f6:    f7fffcf3    ....    BL       __0printf$8 ; 0x10e0
        0x000016fa:    f7fefef3    ....    BL       FMC_Close ; 0x4e4
        0x000016fe:    4918        .I      LDR      r1,[pc,#96] ; [0x1760] = 0x40000100
        0x00001700:    2000        .       MOVS     r0,#0
        0x00001702:    6008        .`      STR      r0,[r1,#0]
        0x00001704:    e7ea        ..      B        0x16dc ; set_data_flash_base + 76
        0x00001706:    4621        !F      MOV      r1,r4
        0x00001708:    a016        ..      ADR      r0,{pc}+0x5c ; 0x1764
        0x0000170a:    f7fffce9    ....    BL       __0printf$8 ; 0x10e0
        0x0000170e:    f7fff857    ..W.    BL       IsDebugFifoEmpty ; 0x7c0
        0x00001712:    2800        .(      CMP      r0,#0
        0x00001714:    d0fb        ..      BEQ      0x170e ; set_data_flash_base + 126
        0x00001716:    2001        .       MOVS     r0,#1
        0x00001718:    0781        ..      LSLS     r1,r0,#30
        0x0000171a:    6088        .`      STR      r0,[r1,#8]
        0x0000171c:    e7cc        ..      B        0x16b8 ; set_data_flash_base + 40
    $d
        0x0000171e:    0000        ..      DCW    0
        0x00001720:    6165520a    .Rea    DCD    1634030090
        0x00001724:    73552064    d Us    DCD    1934958692
        0x00001728:    43207265    er C    DCD    1126199909
        0x0000172c:    69666e6f    onfi    DCD    1768320623
        0x00001730:    61662067    g fa    DCD    1634082919
        0x00001734:    64656c69    iled    DCD    1684368489
        0x00001738:    00000a21    !...    DCD    2593
        0x0000173c:    4000c000    ...@    DCD    1073790976
        0x00001740:    6f727245    Erro    DCD    1869771333
        0x00001744:    50203a72    r: P    DCD    1344289394
        0x00001748:    72676f72    rogr    DCD    1919381362
        0x0000174c:    43206d61    am C    DCD    1126198625
        0x00001750:    69666e6f    onfi    DCD    1768320623
        0x00001754:    61462067    g Fa    DCD    1631985767
        0x00001758:    64656c69    iled    DCD    1684368489
        0x0000175c:    00000a21    !...    DCD    2593
        0x00001760:    40000100    ...@    DCD    1073742080
        0x00001764:    7465530a    .Set    DCD    1952797450
        0x00001768:    74614420     Dat    DCD    1952531488
        0x0000176c:    6c462061    a Fl    DCD    1816535137
        0x00001770:    20687361    ash     DCD    543716193
        0x00001774:    65736162    base    DCD    1702060386
        0x00001778:    20736120     as     DCD    544432416
        0x0000177c:    78257830    0x%x    DCD    2015721520
        0x00001780:    00000a2e    ....    DCD    2606
    $t
    i.stackDump
    stackDump
        0x00001784:    b510        ..      PUSH     {r4,lr}
        0x00001786:    4604        .F      MOV      r4,r0
        0x00001788:    6801        .h      LDR      r1,[r0,#0]
        0x0000178a:    a010        ..      ADR      r0,{pc}+0x42 ; 0x17cc
        0x0000178c:    f7fffca8    ....    BL       __0printf$8 ; 0x10e0
        0x00001790:    a011        ..      ADR      r0,{pc}+0x48 ; 0x17d8
        0x00001792:    6861        ah      LDR      r1,[r4,#4]
        0x00001794:    f7fffca4    ....    BL       __0printf$8 ; 0x10e0
        0x00001798:    a012        ..      ADR      r0,{pc}+0x4c ; 0x17e4
        0x0000179a:    68a1        .h      LDR      r1,[r4,#8]
        0x0000179c:    f7fffca0    ....    BL       __0printf$8 ; 0x10e0
        0x000017a0:    a013        ..      ADR      r0,{pc}+0x50 ; 0x17f0
        0x000017a2:    68e1        .h      LDR      r1,[r4,#0xc]
        0x000017a4:    f7fffc9c    ....    BL       __0printf$8 ; 0x10e0
        0x000017a8:    a014        ..      ADR      r0,{pc}+0x54 ; 0x17fc
        0x000017aa:    6921        !i      LDR      r1,[r4,#0x10]
        0x000017ac:    f7fffc98    ....    BL       __0printf$8 ; 0x10e0
        0x000017b0:    a015        ..      ADR      r0,{pc}+0x58 ; 0x1808
        0x000017b2:    6961        ai      LDR      r1,[r4,#0x14]
        0x000017b4:    f7fffc94    ....    BL       __0printf$8 ; 0x10e0
        0x000017b8:    a016        ..      ADR      r0,{pc}+0x5c ; 0x1814
        0x000017ba:    69a1        .i      LDR      r1,[r4,#0x18]
        0x000017bc:    f7fffc90    ....    BL       __0printf$8 ; 0x10e0
        0x000017c0:    a017        ..      ADR      r0,{pc}+0x60 ; 0x1820
        0x000017c2:    69e1        .i      LDR      r1,[r4,#0x1c]
        0x000017c4:    f7fffc8c    ....    BL       __0printf$8 ; 0x10e0
        0x000017c8:    bd10        ..      POP      {r4,pc}
    $d
        0x000017ca:    0000        ..      DCW    0
        0x000017cc:    20203072    r0      DCD    538980466
        0x000017d0:    7830203d    = 0x    DCD    2016419901
        0x000017d4:    000a7825    %x..    DCD    686117
        0x000017d8:    20203172    r1      DCD    538980722
        0x000017dc:    7830203d    = 0x    DCD    2016419901
        0x000017e0:    000a7825    %x..    DCD    686117
        0x000017e4:    20203272    r2      DCD    538980978
        0x000017e8:    7830203d    = 0x    DCD    2016419901
        0x000017ec:    000a7825    %x..    DCD    686117
        0x000017f0:    20203372    r3      DCD    538981234
        0x000017f4:    7830203d    = 0x    DCD    2016419901
        0x000017f8:    000a7825    %x..    DCD    686117
        0x000017fc:    20323172    r12     DCD    540160370
        0x00001800:    7830203d    = 0x    DCD    2016419901
        0x00001804:    000a7825    %x..    DCD    686117
        0x00001808:    2020726c    lr      DCD    538997356
        0x0000180c:    7830203d    = 0x    DCD    2016419901
        0x00001810:    000a7825    %x..    DCD    686117
        0x00001814:    20206370    pc      DCD    538993520
        0x00001818:    7830203d    = 0x    DCD    2016419901
        0x0000181c:    000a7825    %x..    DCD    686117
        0x00001820:    20727370    psr     DCD    544371568
        0x00001824:    7830203d    = 0x    DCD    2016419901
        0x00001828:    000a7825    %x..    DCD    686117
    $t
    i.timer_counter
    timer_counter
        0x0000182c:    b570        p.      PUSH     {r4-r6,lr}
        0x0000182e:    4d1b        .M      LDR      r5,[pc,#108] ; [0x189c] = 0x20000010
        0x00001830:    2101        .!      MOVS     r1,#1
        0x00001832:    8928        (.      LDRH     r0,[r5,#8]
        0x00001834:    1c40        @.      ADDS     r0,r0,#1
        0x00001836:    b280        ..      UXTH     r0,r0
        0x00001838:    8128        (.      STRH     r0,[r5,#8]
        0x0000183a:    782c        ,x      LDRB     r4,[r5,#0]
        0x0000183c:    4606        .F      MOV      r6,r0
        0x0000183e:    430c        .C      ORRS     r4,r4,r1
        0x00001840:    702c        ,p      STRB     r4,[r5,#0]
        0x00001842:    2105        .!      MOVS     r1,#5
        0x00001844:    f7fefc82    ....    BL       __aeabi_uidiv ; 0x14c
        0x00001848:    2900        .)      CMP      r1,#0
        0x0000184a:    d102        ..      BNE      0x1852 ; timer_counter + 38
        0x0000184c:    2002        .       MOVS     r0,#2
        0x0000184e:    4304        .C      ORRS     r4,r4,r0
        0x00001850:    702c        ,p      STRB     r4,[r5,#0]
        0x00001852:    210a        .!      MOVS     r1,#0xa
        0x00001854:    4630        0F      MOV      r0,r6
        0x00001856:    f7fefc79    ..y.    BL       __aeabi_uidiv ; 0x14c
        0x0000185a:    2900        .)      CMP      r1,#0
        0x0000185c:    d103        ..      BNE      0x1866 ; timer_counter + 58
        0x0000185e:    7828        (x      LDRB     r0,[r5,#0]
        0x00001860:    2104        .!      MOVS     r1,#4
        0x00001862:    4308        .C      ORRS     r0,r0,r1
        0x00001864:    7028        (p      STRB     r0,[r5,#0]
        0x00001866:    2132        2!      MOVS     r1,#0x32
        0x00001868:    4630        0F      MOV      r0,r6
        0x0000186a:    f7fefc6f    ..o.    BL       __aeabi_uidiv ; 0x14c
        0x0000186e:    2900        .)      CMP      r1,#0
        0x00001870:    d103        ..      BNE      0x187a ; timer_counter + 78
        0x00001872:    7828        (x      LDRB     r0,[r5,#0]
        0x00001874:    2108        .!      MOVS     r1,#8
        0x00001876:    4308        .C      ORRS     r0,r0,r1
        0x00001878:    7028        (p      STRB     r0,[r5,#0]
        0x0000187a:    2164        d!      MOVS     r1,#0x64
        0x0000187c:    4630        0F      MOV      r0,r6
        0x0000187e:    f7fefc65    ..e.    BL       __aeabi_uidiv ; 0x14c
        0x00001882:    2900        .)      CMP      r1,#0
        0x00001884:    d103        ..      BNE      0x188e ; timer_counter + 98
        0x00001886:    7828        (x      LDRB     r0,[r5,#0]
        0x00001888:    2110        .!      MOVS     r1,#0x10
        0x0000188a:    4308        .C      ORRS     r0,r0,r1
        0x0000188c:    7028        (p      STRB     r0,[r5,#0]
        0x0000188e:    4804        .H      LDR      r0,[pc,#16] ; [0x18a0] = 0xffdc
        0x00001890:    4286        .B      CMP      r6,r0
        0x00001892:    d301        ..      BCC      0x1898 ; timer_counter + 108
        0x00001894:    2000        .       MOVS     r0,#0
        0x00001896:    8128        (.      STRH     r0,[r5,#8]
        0x00001898:    bd70        p.      POP      {r4-r6,pc}
    $d
        0x0000189a:    0000        ..      DCW    0
        0x0000189c:    20000010    ...     DCD    536870928
        0x000018a0:    0000ffdc    ....    DCD    65500
    $d.realdata
    .constdata
    gau32ClkSrcTbl
        0x000018a4:    01e84800    .H..    DCD    32000000
        0x000018a8:    00008000    ....    DCD    32768
        0x000018ac:    05b8d800    ....    DCD    96000000
        0x000018b0:    00009600    ....    DCD    38400
        0x000018b4:    02dc6c00    .l..    DCD    48000000
        0x000018b8:    00000000    ....    DCD    0
        0x000018bc:    00000000    ....    DCD    0
        0x000018c0:    02dc6c00    .l..    DCD    48000000
    .constdata
        0x000018c4:    01e84800    .H..    DCD    32000000
        0x000018c8:    00000000    ....    DCD    0
        0x000018cc:    00008000    ....    DCD    32768
        0x000018d0:    02dc6c00    .l..    DCD    48000000
        0x000018d4:    00000000    ....    DCD    0
        0x000018d8:    00009600    ....    DCD    38400
        0x000018dc:    01e84800    .H..    DCD    32000000
        0x000018e0:    00000000    ....    DCD    0
        0x000018e4:    00008000    ....    DCD    32768
        0x000018e8:    02dc6c00    .l..    DCD    48000000
        0x000018ec:    00000000    ....    DCD    0
        0x000018f0:    00009600    ....    DCD    38400
        0x000018f4:    01e84800    .H..    DCD    32000000
        0x000018f8:    00000000    ....    DCD    0
        0x000018fc:    00008000    ....    DCD    32768
        0x00001900:    02dc6c00    .l..    DCD    48000000
        0x00001904:    00000000    ....    DCD    0
        0x00001908:    00009600    ....    DCD    38400
    .constdata
        0x0000190c:    00000000    ....    DCD    0
        0x00001910:    00000004    ....    DCD    4
        0x00001914:    00000008    ....    DCD    8
        0x00001918:    0000000c    ....    DCD    12
        0x0000191c:    00000000    ....    DCD    0
        0x00001920:    00000000    ....    DCD    0
        0x00001924:    00000000    ....    DCD    0
        0x00001928:    00000010    ....    DCD    16
        0x0000192c:    00000000    ....    DCD    0
        0x00001930:    00000004    ....    DCD    4
        0x00001934:    00000008    ....    DCD    8
        0x00001938:    00000000    ....    DCD    0
        0x0000193c:    00000004    ....    DCD    4
        0x00001940:    00000008    ....    DCD    8
    .constdata
        0x00001944:    01e84800    .H..    DCD    32000000
        0x00001948:    00008000    ....    DCD    32768
        0x0000194c:    00000000    ....    DCD    0
        0x00001950:    00000000    ....    DCD    0
        0x00001954:    00000000    ....    DCD    0
        0x00001958:    00009600    ....    DCD    38400
        0x0000195c:    00000000    ....    DCD    0
        0x00001960:    02dc6c00    .l..    DCD    48000000
    .constdata
    __FUNCTION__
        0x00001964:    65766153    Save    DCD    1702256979
        0x00001968:    65746144    Date    DCD    1702125892
        0x0000196c:    656d6954    Time    DCD    1701669204
        0x00001970:    6c466f54    ToFl    DCD    1816555348
        0x00001974:    00687361    ash.    DCD    6845281
        0x00001978:    0000001f    ....    DCD    31
        0x0000197c:    0000001c    ....    DCD    28
        0x00001980:    0000001f    ....    DCD    31
        0x00001984:    0000001e    ....    DCD    30
        0x00001988:    0000001f    ....    DCD    31
        0x0000198c:    0000001e    ....    DCD    30
        0x00001990:    0000001f    ....    DCD    31
        0x00001994:    0000001f    ....    DCD    31
        0x00001998:    0000001e    ....    DCD    30
        0x0000199c:    0000001f    ....    DCD    31
        0x000019a0:    0000001e    ....    DCD    30
        0x000019a4:    0000001f    ....    DCD    31
    Region$$Table$$Base
        0x000019a8:    000019c8    ....    DCD    6600
        0x000019ac:    20000000    ...     DCD    536870912
        0x000019b0:    0000003c    <...    DCD    60
        0x000019b4:    00001100    ....    DCD    4352
        0x000019b8:    00001a04    ....    DCD    6660
        0x000019bc:    2000003c    <..     DCD    536870972
        0x000019c0:    00000204    ....    DCD    516
        0x000019c4:    00001110    ....    DCD    4368
    Region$$Table$$Limit

** Section #2 'ER_RW' (SHT_PROGBITS) [SHF_ALLOC + SHF_WRITE]
    Size   : 60 bytes (alignment 4)
    Address: 0x20000000


** Section #3 'ER_ZI' (SHT_NOBITS) [SHF_ALLOC + SHF_WRITE]
    Size   : 516 bytes (alignment 8)
    Address: 0x2000003c


** Section #4 '.debug_abbrev' (SHT_PROGBITS)
    Size   : 1476 bytes


** Section #5 '.debug_frame' (SHT_PROGBITS)
    Size   : 2336 bytes


** Section #6 '.debug_info' (SHT_PROGBITS)
    Size   : 28644 bytes


** Section #7 '.debug_line' (SHT_PROGBITS)
    Size   : 12236 bytes


** Section #8 '.debug_loc' (SHT_PROGBITS)
    Size   : 4148 bytes


** Section #9 '.debug_macinfo' (SHT_PROGBITS)
    Size   : 225088 bytes


** Section #10 '.debug_pubnames' (SHT_PROGBITS)
    Size   : 2364 bytes


** Section #11 '.symtab' (SHT_SYMTAB)
    Size   : 7840 bytes (alignment 4)
    String table #12 '.strtab'
    Last local symbol no. 300


** Section #12 '.strtab' (SHT_STRTAB)
    Size   : 5872 bytes


** Section #13 '.note' (SHT_NOTE)
    Size   : 28 bytes (alignment 4)


** Section #14 '.comment' (SHT_PROGBITS)
    Size   : 14344 bytes


** Section #15 '.shstrtab' (SHT_STRTAB)
    Size   : 156 bytes


